

Microchip MPLAB XC8 Assembler V2.40 build 20220703182018 
                                                                                               Mon Mar 03 21:05:15 2025

Microchip MPLAB XC8 C Compiler v2.40 (Free license) build 20220703182018 Og1 
     1                           	processor	18F25K80
     2                           	fnconf	rparam,??,?,0
     3                           	pagewidth 120
     4                           	opt	flic
     5                           	psect	idataCOMRAM,global,class=CODE,delta=1,noexec
     6                           	psect	smallconst,global,reloc=2,class=SMALLCONST,delta=1,noexec
     7                           	psect	nvCOMRAM,global,class=COMRAM,space=1,delta=1,lowdata,noexec
     8                           	psect	cinit,global,reloc=2,class=CODE,delta=1
     9                           	psect	bssCOMRAM,global,class=COMRAM,space=1,delta=1,lowdata,noexec
    10                           	psect	dataCOMRAM,global,class=COMRAM,space=1,delta=1,lowdata,noexec
    11                           	psect	cstackCOMRAM,global,class=COMRAM,space=1,delta=1,lowdata,noexec
    12                           	psect	text0,global,reloc=2,class=CODE,delta=1
    13                           	psect	text1,global,reloc=2,class=CODE,delta=1
    14                           	psect	text2,global,reloc=2,class=CODE,delta=1
    15                           	psect	text3,global,reloc=2,class=CODE,delta=1
    16                           	psect	text4,global,reloc=2,class=CODE,delta=1
    17                           	psect	text5,global,reloc=2,class=CODE,delta=1
    18                           	psect	text6,global,reloc=2,class=CODE,delta=1
    19                           	psect	text7,global,reloc=2,class=CODE,delta=1
    20                           	psect	text8,global,reloc=2,class=CODE,delta=1
    21                           	psect	text9,global,reloc=2,class=CODE,delta=1
    22                           	psect	text10,global,reloc=2,class=CODE,delta=1
    23                           	psect	text11,global,reloc=2,class=CODE,delta=1
    24                           	psect	text12,global,reloc=2,class=CODE,delta=1
    25                           	psect	text13,global,reloc=2,class=CODE,delta=1
    26                           	psect	text14,global,reloc=2,class=CODE,delta=1,inline
    27                           	psect	text15,global,reloc=2,class=CODE,delta=1
    28                           	psect	text16,global,reloc=2,class=CODE,delta=1
    29                           	psect	text17,global,reloc=2,class=CODE,delta=1,inline
    30                           	psect	text18,global,reloc=2,class=CODE,delta=1,inline
    31                           	psect	text19,global,reloc=2,class=CODE,delta=1
    32                           	psect	text20,global,reloc=2,class=CODE,delta=1
    33                           	psect	text21,global,reloc=2,class=CODE,delta=1
    34                           	psect	text22,global,reloc=2,class=CODE,delta=1
    35                           	psect	text23,global,reloc=2,class=CODE,delta=1
    36                           	psect	text24,global,reloc=2,class=CODE,delta=1
    37                           	psect	text25,global,reloc=2,class=CODE,delta=1
    38                           	psect	text26,global,reloc=2,class=CODE,delta=1
    39                           	psect	text27,global,reloc=2,class=CODE,delta=1
    40                           	psect	text28,global,reloc=2,class=CODE,delta=1
    41                           	psect	text29,global,reloc=2,class=CODE,delta=1
    42                           	psect	text30,global,reloc=2,class=CODE,delta=1
    43                           	psect	text31,global,reloc=2,class=CODE,delta=1
    44                           	psect	text32,global,reloc=2,class=CODE,delta=1
    45                           	psect	text33,global,reloc=2,class=CODE,delta=1
    46                           	psect	text34,global,reloc=2,class=CODE,delta=1
    47                           	psect	text35,global,reloc=2,class=CODE,delta=1,inline
    48                           	psect	text36,global,reloc=2,class=CODE,delta=1,inline
    49                           	psect	text37,global,reloc=2,class=CODE,delta=1,inline
    50                           	psect	text38,global,reloc=2,class=CODE,delta=1,inline
    51                           	psect	text39,global,reloc=2,class=CODE,delta=1,inline
    52                           	psect	text40,global,reloc=2,class=CODE,delta=1,inline
    53                           	psect	text41,global,reloc=2,class=CODE,delta=1,inline
    54                           	psect	text42,global,reloc=2,class=CODE,delta=1
    55                           	psect	text43,global,reloc=2,class=CODE,delta=1
    56                           	psect	text44,global,reloc=2,class=CODE,delta=1
    57                           	psect	text45,global,reloc=2,class=CODE,delta=1
    58                           	psect	text46,global,reloc=2,class=CODE,delta=1
    59                           	psect	text47,global,reloc=2,class=CODE,delta=1
    60                           	psect	text48,global,reloc=2,class=CODE,delta=1
    61                           	psect	text49,global,reloc=2,class=CODE,delta=1
    62                           	psect	text50,global,reloc=2,class=CODE,delta=1
    63                           	psect	text51,global,reloc=2,class=CODE,delta=1
    64                           	psect	text52,global,reloc=2,class=CODE,delta=1
    65                           	psect	text53,global,reloc=2,class=CODE,delta=1
    66                           	psect	text54,global,reloc=2,class=CODE,delta=1
    67                           	psect	text55,global,reloc=2,class=CODE,delta=1
    68                           	psect	text56,global,reloc=2,class=CODE,delta=1
    69                           	psect	text57,global,reloc=2,class=CODE,delta=1,inline
    70                           	psect	text58,global,reloc=2,class=CODE,delta=1,inline
    71                           	psect	text59,global,reloc=2,class=CODE,delta=1,inline
    72                           	psect	text60,global,reloc=2,class=CODE,delta=1
    73                           	psect	text61,global,reloc=2,class=CODE,delta=1,inline
    74                           	psect	text62,global,reloc=2,class=CODE,delta=1,inline
    75                           	psect	text63,global,reloc=2,class=CODE,delta=1,inline
    76                           	psect	intcode,global,reloc=2,class=CODE,delta=1
    77                           	psect	intsave_regs,global,class=BIGRAM,space=1,delta=1,noexec
    78                           	psect	rparam,global,class=COMRAM,space=1,delta=1,noexec
    79                           	psect	temp,global,ovrld,common,class=COMRAM,space=1,delta=1
    80                           	psect	idloc,global,abs,ovrld,class=IDLOC,space=5,delta=1,noexec
    81                           	psect	config,global,abs,ovrld,class=CONFIG,space=4,delta=1,noexec
    82   000000                     
    83                           ; Version 2.35
    84                           ; Generated 05/05/2021 GMT
    85                           ; 
    86                           ; Copyright © 2021, Microchip Technology Inc. and its subsidiaries ("Microchip")
    87                           ; All rights reserved.
    88                           ; 
    89                           ; This software is developed by Microchip Technology Inc. and its subsidiaries ("Microch
      +                          ip").
    90                           ; 
    91                           ; Redistribution and use in source and binary forms, with or without modification, are
    92                           ; permitted provided that the following conditions are met:
    93                           ; 
    94                           ;     1. Redistributions of source code must retain the above copyright notice, this lis
      +                          t of
    95                           ;        conditions and the following disclaimer.
    96                           ; 
    97                           ;     2. Redistributions in binary form must reproduce the above copyright notice, this 
      +                          list
    98                           ;        of conditions and the following disclaimer in the documentation and/or other
    99                           ;        materials provided with the distribution. Publication is not required when
   100                           ;        this file is used in an embedded application.
   101                           ; 
   102                           ;     3. Microchip's name may not be used to endorse or promote products derived from th
      +                          is
   103                           ;        software without specific prior written permission.
   104                           ; 
   105                           ; THIS SOFTWARE IS PROVIDED BY MICROCHIP "AS IS" AND ANY EXPRESS OR IMPLIED WARRANTIES,
   106                           ; INCLUDING, BUT NOT LIMITED TO, THE IMPLIED WARRANTIES OF MERCHANTABILITY AND FITNESS F
      +                          OR
   107                           ; PURPOSE ARE DISCLAIMED.  IN NO EVENT SHALL MICROCHIP BE LIABLE FOR ANY DIRECT, INDIREC
      +                          T,
   108                           ; INCIDENTAL, SPECIAL, EXEMPLARY, OR CONSEQUENTIAL DAMAGES (INCLUDING BUT NOT LIMITED TO
   109                           ; PROCUREMENT OF SUBSTITUTE GOODS OR SERVICES; LOSS OF USE, DATA OR PROFITS; OR BUSINESS
   110                           ; INTERRUPTION) HOWSOEVER CAUSED AND ON ANY THEORY OF LIABILITY, WHETHER IN CONTRACT, ST
      +                          RICT
   111                           ; LIABILITY, OR TORT (INCLUDING NEGLIGENCE OR OTHERWISE) ARISING IN ANY WAY OUT OF THE U
      +                          SE OF
   112                           ; THIS SOFTWARE, EVEN IF ADVISED OF THE POSSIBILITY OF SUCH DAMAGE.
   113                           ; 
   114                           ; 
   115                           ; Code-generator required, PIC18F25K80 Definitions
   116                           ; 
   117                           ; SFR Addresses
   118   000000                     
   119 ;; Function _EUSART1_DefaultFramingErrorHandler is unused but had its address taken
   120   000000                     
   121 ;; Function _EUSART1_DefaultOverrunErrorHandler is unused but had its address taken
   122   000000                     
   123 ;; Function _EUSART1_DefaultErrorHandler is unused but had its address taken
   124   000000                     
   125 ;; Function _CCP2_DefaultCallBack is unused but had its address taken
   126   000000                     
   127                           	psect	idataCOMRAM
   128   001A64                     __pidataCOMRAM:
   129                           	callstack 0
   130                           
   131                           ;initializer for main@F12652
   132   001A64  30                 	db	48
   133   001A65  31                 	db	49
   134   001A66  32                 	db	50
   135                           
   136                           	psect	smallconst
   137   001000                     __psmallconst:
   138                           	callstack 0
   139   001000  00                 	db	0
   140   001001                     _i2c_fsmStateTable:
   141                           	callstack 0
   142   001001  E2                 	db	low _I2C_DO_IDLE
   143   001002  19                 	db	high _I2C_DO_IDLE
   144   001003  A2                 	db	low _I2C_DO_SEND_ADR_READ
   145   001004  19                 	db	high _I2C_DO_SEND_ADR_READ
   146   001005  94                 	db	low _I2C_DO_SEND_ADR_WRITE
   147   001006  19                 	db	high _I2C_DO_SEND_ADR_WRITE
   148   001007  22                 	db	low _I2C_DO_TX
   149   001008  10                 	db	high _I2C_DO_TX
   150   001009  9E                 	db	low _I2C_DO_RX
   151   00100A  11                 	db	high _I2C_DO_RX
   152   00100B  D8                 	db	low _I2C_DO_RCEN
   153   00100C  19                 	db	high _I2C_DO_RCEN
   154   00100D  D0                 	db	low _I2C_DO_TX_EMPTY
   155   00100E  12                 	db	high _I2C_DO_TX_EMPTY
   156   00100F  1C                 	db	low _I2C_DO_SEND_RESTART_READ
   157   001010  1A                 	db	high _I2C_DO_SEND_RESTART_READ
   158   001011  14                 	db	low _I2C_DO_SEND_RESTART_WRITE
   159   001012  1A                 	db	high _I2C_DO_SEND_RESTART_WRITE
   160   001013  0C                 	db	low _I2C_DO_SEND_RESTART
   161   001014  1A                 	db	high _I2C_DO_SEND_RESTART
   162   001015  04                 	db	low _I2C_DO_SEND_STOP
   163   001016  1A                 	db	high _I2C_DO_SEND_STOP
   164   001017  FC                 	db	low _I2C_DO_RX_ACK
   165   001018  19                 	db	high _I2C_DO_RX_ACK
   166   001019  F4                 	db	low _I2C_DO_RX_NACK_STOP
   167   00101A  19                 	db	high _I2C_DO_RX_NACK_STOP
   168   00101B  EC                 	db	low _I2C_DO_RX_NACK_RESTART
   169   00101C  19                 	db	high _I2C_DO_RX_NACK_RESTART
   170   00101D  CE                 	db	low _I2C_DO_RESET
   171   00101E  19                 	db	high _I2C_DO_RESET
   172   00101F  A8                 	db	low _I2C_DO_ADDRESS_NACK
   173   001020  14                 	db	high _I2C_DO_ADDRESS_NACK
   174   001021                     __end_of_i2c_fsmStateTable:
   175                           	callstack 0
   176   000000                     _TXREG1	set	4013
   177   000000                     _RCREG1	set	4014
   178   000000                     _SPBRG1	set	4015
   179   000000                     _TXSTA1	set	4012
   180   001021  00                 	db	0	; dummy byte at the end
   181   000000                     
   182                           	psect	nvCOMRAM
   183   000049                     __pnvCOMRAM:
   184                           	callstack 0
   185   000049                     _EUSART1_ErrorHandler:
   186                           	callstack 0
   187   000049                     	ds	2
   188   00004B                     _EUSART1_OverrunErrorHandler:
   189                           	callstack 0
   190   00004B                     	ds	2
   191   00004D                     _EUSART1_FramingErrorHandler:
   192                           	callstack 0
   193   00004D                     	ds	2
   194   000000                     _T1GCONbits	set	4010
   195   000000                     _T1CONbits	set	4045
   196   000000                     _SSPSTATbits	set	4039
   197   000000                     _SSPCON2bits	set	4037
   198   000000                     _SSPCON1bits	set	4038
   199   000000                     _RCSTA1bits	set	4011
   200   000000                     _TXSTA1bits	set	4012
   201   000000                     _CCP2CON	set	3920
   202   000000                     _WPUB	set	3931
   203   000000                     _ANCON1	set	3932
   204   000000                     _ANCON0	set	3933
   205   000000                     _SPBRGH1	set	3965
   206   000000                     _BAUDCON1	set	4007
   207   000000                     _T1GCON	set	4010
   208   000000                     _RCSTA1	set	4011
   209   000000                     _SSPCON2	set	4037
   210   000000                     _SSPCON1	set	4038
   211   000000                     _SSPSTAT	set	4039
   212   000000                     _OSCCON2	set	4050
   213   000000                     _OSCCON	set	4051
   214   000000                     _LATA	set	3977
   215   000000                     _REFOCON	set	3994
   216   000000                     _OSCTUNE	set	3995
   217   000000                     _PIR1bits	set	3998
   218   000000                     _PIR2bits	set	4001
   219   000000                     _INTCON2bits	set	4081
   220   000000                     _PIE1bits	set	3997
   221   000000                     _TRISA	set	3986
   222   000000                     _LATC	set	3979
   223   000000                     _LATB	set	3978
   224   000000                     _CCPTMRSbits	set	3993
   225   000000                     _TRISC	set	3988
   226   000000                     _TRISB	set	3987
   227   000000                     _INTCONbits	set	4082
   228   000000                     _T1CON	set	4045
   229   000000                     _TMR1L	set	4046
   230   000000                     _TMR1H	set	4047
   231   000000                     _RCONbits	set	4048
   232   000000                     _SSPBUF	set	4041
   233   000000                     _SSPADD	set	4040
   234   000000                     _PIE3bits	set	4003
   235   000000                     _PIR3bits	set	4004
   236   000000                     _CCPR2H	set	3922
   237   000000                     _CCPR2L	set	3921
   238                           
   239                           ; #config settings
   240                           
   241                           	psect	cinit
   242   0016CA                     __pcinit:
   243                           	callstack 0
   244   0016CA                     start_initialization:
   245                           	callstack 0
   246   0016CA                     __initialization:
   247                           	callstack 0
   248                           
   249                           ; Initialize objects allocated to COMRAM (3 bytes)
   250                           ; load TBLPTR registers with __pidataCOMRAM
   251   0016CA  0E64               	movlw	low __pidataCOMRAM
   252   0016CC  6EF6               	movwf	tblptrl,c
   253   0016CE  0E1A               	movlw	high __pidataCOMRAM
   254   0016D0  6EF7               	movwf	tblptrh,c
   255   0016D2  0E00               	movlw	low (__pidataCOMRAM shr (0+16))
   256   0016D4  6EF8               	movwf	tblptru,c
   257   0016D6  0009               	tblrd		*+	;fetch initializer
   258   0016D8  CFF5 F04F          	movff	tablat,__pdataCOMRAM
   259   0016DC  0009               	tblrd		*+	;fetch initializer
   260   0016DE  CFF5 F050          	movff	tablat,__pdataCOMRAM+1
   261   0016E2  0009               	tblrd		*+	;fetch initializer
   262   0016E4  CFF5 F051          	movff	tablat,__pdataCOMRAM+2
   263                           
   264                           ; Clear objects allocated to COMRAM (46 bytes)
   265   0016E8  EE00  F001         	lfsr	0,__pbssCOMRAM
   266   0016EC  0E2E               	movlw	46
   267   0016EE                     clear_0:
   268   0016EE  6AEE               	clrf	postinc0,c
   269   0016F0  06E8               	decf	wreg,f,c
   270   0016F2  E1FD               	bnz	clear_0
   271   0016F4                     end_of_initialization:
   272                           	callstack 0
   273   0016F4                     __end_of__initialization:
   274                           	callstack 0
   275   0016F4  9052               	bcf	int$flags,0,c	;clear compiler interrupt flag (level 1)
   276   0016F6  9252               	bcf	int$flags,1,c	;clear compiler interrupt flag (level 2)
   277   0016F8  0E00               	movlw	low (__Lmediumconst shr (0+16))
   278   0016FA  6EF8               	movwf	tblptru,c
   279   0016FC  0100               	movlb	0
   280   0016FE  EFE3  F009         	goto	_main	;jump to C main() function
   281                           
   282                           	psect	bssCOMRAM
   283   000001                     __pbssCOMRAM:
   284                           	callstack 0
   285   000001                     _I2C_Status:
   286                           	callstack 0
   287   000001                     	ds	36
   288   000025                     	ds	3
   289   000028                     _timer1ReloadVal:
   290                           	callstack 0
   291   000028                     	ds	2
   292   00002A                     _CCP2_CallBack:
   293                           	callstack 0
   294   00002A                     	ds	2
   295   00002C                     	ds	2
   296   00002E                     _eusart1RxLastError:
   297                           	callstack 0
   298   00002E                     	ds	1
   299                           
   300                           	psect	dataCOMRAM
   301   00004F                     __pdataCOMRAM:
   302                           	callstack 0
   303   00004F                     main@F12652:
   304                           	callstack 0
   305   00004F                     	ds	3
   306                           
   307                           	psect	cstackCOMRAM
   308   00002F                     __pcstackCOMRAM:
   309                           	callstack 0
   310   00002F                     EUSART1_Write@txData:
   311                           	callstack 0
   312   00002F                     I2C_Open@address:
   313                           	callstack 0
   314   00002F                     I2C_Close@returnValue:
   315                           	callstack 0
   316   00002F                     I2C_MasterSendTxData@data:
   317                           	callstack 0
   318   00002F                     EUSART1_SetFramingErrorHandler@interruptHandler:
   319                           	callstack 0
   320   00002F                     EUSART1_SetOverrunErrorHandler@interruptHandler:
   321                           	callstack 0
   322   00002F                     EUSART1_SetErrorHandler@interruptHandler:
   323                           	callstack 0
   324   00002F                     I2C_SetBuffer@buffer:
   325                           	callstack 0
   326   00002F                     I2C_SetCallback@cb:
   327                           	callstack 0
   328                           
   329                           ; 2 bytes @ 0x0
   330   00002F                     	ds	1
   331   000030                     I2C_Open@returnValue:
   332                           	callstack 0
   333                           
   334                           ; 1 bytes @ 0x1
   335   000030                     	ds	1
   336   000031                     I2C_SetBuffer@bufferSize:
   337                           	callstack 0
   338   000031                     I2C_SetCallback@ptr:
   339                           	callstack 0
   340                           
   341                           ; 2 bytes @ 0x2
   342   000031                     	ds	2
   343   000033                     I2C_SetCallback@idx:
   344                           	callstack 0
   345                           
   346                           ; 1 bytes @ 0x4
   347   000033                     	ds	1
   348   000034                     I2C_SetDataCompleteCallback@cb:
   349                           	callstack 0
   350                           
   351                           ; 2 bytes @ 0x5
   352   000034                     	ds	2
   353   000036                     I2C_SetDataCompleteCallback@ptr:
   354                           	callstack 0
   355                           
   356                           ; 2 bytes @ 0x7
   357   000036                     	ds	2
   358   000038                     wr1RegCompleteHandler@p:
   359                           	callstack 0
   360   000038                     rd1RegCompleteHandler@p:
   361                           	callstack 0
   362   000038                     rd2RegCompleteHandler@p:
   363                           	callstack 0
   364   000038                     wr2RegCompleteHandler@p:
   365                           	callstack 0
   366   000038                     rdBlkRegCompleteHandler@p:
   367                           	callstack 0
   368   000038                     rd1RegCompleteHandler@i2c_master_example$F145@ptr:
   369                           	callstack 0
   370   000038                     rd2RegCompleteHandler@i2c_master_example$F156@ptr:
   371                           	callstack 0
   372   000038                     wr1RegCompleteHandler@i2c_master_example$F162@ptr:
   373                           	callstack 0
   374   000038                     wr2RegCompleteHandler@i2c_master_example$F168@ptr:
   375                           	callstack 0
   376   000038                     rdBlkRegCompleteHandler@i2c_master_example$F179@ptr:
   377                           	callstack 0
   378   000038                     I2C_CallbackReturnReset@funPtr:
   379                           	callstack 0
   380                           
   381                           ; 2 bytes @ 0x9
   382   000038                     	ds	2
   383   00003A                     ??_I2C_DO_TX:
   384   00003A                     ??_I2C_DO_RX:
   385   00003A                     ??_I2C_DO_TX_EMPTY:
   386   00003A                     ??_I2C_DO_ADDRESS_NACK:
   387   00003A                     
   388                           ; 1 bytes @ 0xB
   389   00003A                     	ds	2
   390   00003C                     I2C_MasterOperation@read:
   391                           	callstack 0
   392                           
   393                           ; 1 bytes @ 0xD
   394   00003C                     	ds	1
   395   00003D                     I2C_MasterOperation@returnValue:
   396                           	callstack 0
   397                           
   398                           ; 1 bytes @ 0xE
   399   00003D                     	ds	1
   400   00003E                     LCD_Write@message:
   401                           	callstack 0
   402   00003E                     EEPROM_Write@addr:
   403                           	callstack 0
   404   00003E                     EEPROM_Read@addr:
   405                           	callstack 0
   406                           
   407                           ; 2 bytes @ 0xF
   408   00003E                     	ds	2
   409   000040                     LCD_Write@length:
   410                           	callstack 0
   411   000040                     EEPROM_Write@data:
   412                           	callstack 0
   413   000040                     EEPROM_Read@buffer:
   414                           	callstack 0
   415                           
   416                           ; 2 bytes @ 0x11
   417   000040                     	ds	1
   418   000041                     ??_LCD_Write:
   419   000041                     ??_EEPROM_Write:
   420                           
   421                           ; 1 bytes @ 0x12
   422   000041                     	ds	1
   423   000042                     EEPROM_Read@length:
   424                           	callstack 0
   425   000042                     EEPROM_Write@buffer:
   426                           	callstack 0
   427                           
   428                           ; 3 bytes @ 0x13
   429   000042                     	ds	1
   430   000043                     ??_EEPROM_Read:
   431                           
   432                           ; 1 bytes @ 0x14
   433   000043                     	ds	1
   434   000044                     EEPROM_Read@addrBuffer:
   435                           	callstack 0
   436                           
   437                           ; 2 bytes @ 0x15
   438   000044                     	ds	2
   439   000046                     main@message:
   440                           	callstack 0
   441                           
   442                           ; 3 bytes @ 0x17
   443   000046                     	ds	3
   444                           
   445 ;;
   446 ;;Main: autosize = 0, tempsize = 0, incstack = 0, save=0
   447 ;;
   448 ;; *************** function _main *****************
   449 ;; Defined at:
   450 ;;		line 51 in file "main.c"
   451 ;; Parameters:    Size  Location     Type
   452 ;;		None
   453 ;; Auto vars:     Size  Location     Type
   454 ;;  message         3   23[COMRAM] unsigned char [3]
   455 ;; Return value:  Size  Location     Type
   456 ;;                  1    wreg      void 
   457 ;; Registers used:
   458 ;;		wreg, fsr2l, fsr2h, status,2, status,0, pcl, pclath, pclatu, tosl, tblptrl, tblptrh, tblptru, prodl, prodh, cstack
   459 ;; Tracked objects:
   460 ;;		On entry : 0/0
   461 ;;		On exit  : 0/0
   462 ;;		Unchanged: 0/0
   463 ;; Data sizes:     COMRAM   BANK0   BANK1   BANK2   BANK3   BANK4   BANK5   BANK6   BANK7   BANK8   BANK9  BANK10  BANK1
      +1  BANK12  BANK13  BANK14
   464 ;;      Params:         0       0       0       0       0       0       0       0       0       0       0       0       
      +0       0       0       0
   465 ;;      Locals:         3       0       0       0       0       0       0       0       0       0       0       0       
      +0       0       0       0
   466 ;;      Temps:          0       0       0       0       0       0       0       0       0       0       0       0       
      +0       0       0       0
   467 ;;      Totals:         3       0       0       0       0       0       0       0       0       0       0       0       
      +0       0       0       0
   468 ;;Total ram usage:        3 bytes
   469 ;; Hardware stack levels required when called: 9
   470 ;; This function calls:
   471 ;;		_EEPROM_Read
   472 ;;		_EEPROM_Write
   473 ;;		_LCD_Clear
   474 ;;		_LCD_Write
   475 ;;		_SYSTEM_Initialize
   476 ;; This function is called by:
   477 ;;		Startup code after reset
   478 ;; This function uses a non-reentrant model
   479 ;;
   480                           
   481                           	psect	text0
   482   0013C6                     __ptext0:
   483                           	callstack 0
   484   0013C6                     _main:
   485                           	callstack 22
   486   0013C6                     
   487                           ;main.c: 53:     SYSTEM_Initialize();
   488   0013C6  ECBC  F00C         	call	_SYSTEM_Initialize	;wreg free
   489   0013CA                     
   490                           ;main.c: 54:     LCD_Clear();
   491   0013CA  ECC3  F00C         	call	_LCD_Clear	;wreg free
   492   0013CE                     
   493                           ;main.c: 56:     uint8_t message[3] = { '0', '1', '2' };
   494   0013CE  C04F  F046         	movff	main@F12652,main@message
   495   0013D2  C050  F047         	movff	main@F12652+1,main@message+1
   496   0013D6  C051  F048         	movff	main@F12652+2,main@message+2
   497   0013DA                     l3082:
   498                           
   499                           ;main.c: 60:         EEPROM_Write(0x0000, message[0]);
   500   0013DA  0E00               	movlw	0
   501   0013DC  6E3F               	movwf	(EEPROM_Write@addr+1)^0,c
   502   0013DE  0E00               	movlw	0
   503   0013E0  6E3E               	movwf	EEPROM_Write@addr^0,c
   504   0013E2  C046  F040         	movff	main@message,EEPROM_Write@data
   505   0013E6  EC1D  F00A         	call	_EEPROM_Write	;wreg free
   506   0013EA                     
   507                           ;main.c: 61:         EEPROM_Write(0x0001, message[1]);
   508   0013EA  0E00               	movlw	0
   509   0013EC  6E3F               	movwf	(EEPROM_Write@addr+1)^0,c
   510   0013EE  0E01               	movlw	1
   511   0013F0  6E3E               	movwf	EEPROM_Write@addr^0,c
   512   0013F2  C047  F040         	movff	main@message+1,EEPROM_Write@data
   513   0013F6  EC1D  F00A         	call	_EEPROM_Write	;wreg free
   514   0013FA                     
   515                           ;main.c: 62:         EEPROM_Write(0x0002, message[2]);
   516   0013FA  0E00               	movlw	0
   517   0013FC  6E3F               	movwf	(EEPROM_Write@addr+1)^0,c
   518   0013FE  0E02               	movlw	2
   519   001400  6E3E               	movwf	EEPROM_Write@addr^0,c
   520   001402  C048  F040         	movff	main@message+2,EEPROM_Write@data
   521   001406  EC1D  F00A         	call	_EEPROM_Write	;wreg free
   522   00140A                     
   523                           ;main.c: 65:         EEPROM_Read(0x0000, message, 3);
   524   00140A  0E00               	movlw	0
   525   00140C  6E3F               	movwf	(EEPROM_Read@addr+1)^0,c
   526   00140E  0E00               	movlw	0
   527   001410  6E3E               	movwf	EEPROM_Read@addr^0,c
   528   001412  0E46               	movlw	low main@message
   529   001414  6E40               	movwf	EEPROM_Read@buffer^0,c
   530   001416  0E00               	movlw	high main@message
   531   001418  6E41               	movwf	(EEPROM_Read@buffer+1)^0,c
   532   00141A  0E03               	movlw	3
   533   00141C  6E42               	movwf	EEPROM_Read@length^0,c
   534   00141E  EC73  F008         	call	_EEPROM_Read	;wreg free
   535   001422                     
   536                           ;main.c: 68:         LCD_Write(message, 3);
   537   001422  0E46               	movlw	low main@message
   538   001424  6E3E               	movwf	LCD_Write@message^0,c
   539   001426  0E00               	movlw	high main@message
   540   001428  6E3F               	movwf	(LCD_Write@message+1)^0,c
   541   00142A  0E03               	movlw	3
   542   00142C  6E40               	movwf	LCD_Write@length^0,c
   543   00142E  EC89  F00A         	call	_LCD_Write	;wreg free
   544   001432  EFED  F009         	goto	l3082
   545   001436  EF36  F000         	goto	start
   546   00143A                     __end_of_main:
   547                           	callstack 0
   548                           
   549 ;; *************** function _SYSTEM_Initialize *****************
   550 ;; Defined at:
   551 ;;		line 50 in file "mcc_generated_files/mcc.c"
   552 ;; Parameters:    Size  Location     Type
   553 ;;		None
   554 ;; Auto vars:     Size  Location     Type
   555 ;;		None
   556 ;; Return value:  Size  Location     Type
   557 ;;                  1    wreg      void 
   558 ;; Registers used:
   559 ;;		wreg, status,2, status,0, cstack
   560 ;; Tracked objects:
   561 ;;		On entry : 0/0
   562 ;;		On exit  : 0/0
   563 ;;		Unchanged: 0/0
   564 ;; Data sizes:     COMRAM   BANK0   BANK1   BANK2   BANK3   BANK4   BANK5   BANK6   BANK7   BANK8   BANK9  BANK10  BANK1
      +1  BANK12  BANK13  BANK14
   565 ;;      Params:         0       0       0       0       0       0       0       0       0       0       0       0       
      +0       0       0       0
   566 ;;      Locals:         0       0       0       0       0       0       0       0       0       0       0       0       
      +0       0       0       0
   567 ;;      Temps:          0       0       0       0       0       0       0       0       0       0       0       0       
      +0       0       0       0
   568 ;;      Totals:         0       0       0       0       0       0       0       0       0       0       0       0       
      +0       0       0       0
   569 ;;Total ram usage:        0 bytes
   570 ;; Hardware stack levels used: 1
   571 ;; Hardware stack levels required when called: 3
   572 ;; This function calls:
   573 ;;		_EUSART1_Initialize
   574 ;;		_OSCILLATOR_Initialize
   575 ;;		_PIN_MANAGER_Initialize
   576 ;; This function is called by:
   577 ;;		_main
   578 ;; This function uses a non-reentrant model
   579 ;;
   580                           
   581                           	psect	text1
   582   001978                     __ptext1:
   583                           	callstack 0
   584   001978                     _SYSTEM_Initialize:
   585                           	callstack 27
   586   001978                     
   587                           ;mcc_generated_files/mcc.c: 53:     PIN_MANAGER_Initialize();
   588   001978  EC46  F00C         	call	_PIN_MANAGER_Initialize	;wreg free
   589                           
   590                           ;mcc_generated_files/mcc.c: 54:     OSCILLATOR_Initialize();
   591   00197C  ECAB  F00C         	call	_OSCILLATOR_Initialize	;wreg free
   592   001980                     
   593                           ;mcc_generated_files/mcc.c: 55:     EUSART1_Initialize();
   594   001980  EC46  F00B         	call	_EUSART1_Initialize	;wreg free
   595   001984  0012               	return		;funcret
   596   001986                     __end_of_SYSTEM_Initialize:
   597                           	callstack 0
   598                           
   599 ;; *************** function _PIN_MANAGER_Initialize *****************
   600 ;; Defined at:
   601 ;;		line 55 in file "mcc_generated_files/pin_manager.c"
   602 ;; Parameters:    Size  Location     Type
   603 ;;		None
   604 ;; Auto vars:     Size  Location     Type
   605 ;;		None
   606 ;; Return value:  Size  Location     Type
   607 ;;                  1    wreg      void 
   608 ;; Registers used:
   609 ;;		wreg, status,2
   610 ;; Tracked objects:
   611 ;;		On entry : 0/0
   612 ;;		On exit  : 0/0
   613 ;;		Unchanged: 0/0
   614 ;; Data sizes:     COMRAM   BANK0   BANK1   BANK2   BANK3   BANK4   BANK5   BANK6   BANK7   BANK8   BANK9  BANK10  BANK1
      +1  BANK12  BANK13  BANK14
   615 ;;      Params:         0       0       0       0       0       0       0       0       0       0       0       0       
      +0       0       0       0
   616 ;;      Locals:         0       0       0       0       0       0       0       0       0       0       0       0       
      +0       0       0       0
   617 ;;      Temps:          0       0       0       0       0       0       0       0       0       0       0       0       
      +0       0       0       0
   618 ;;      Totals:         0       0       0       0       0       0       0       0       0       0       0       0       
      +0       0       0       0
   619 ;;Total ram usage:        0 bytes
   620 ;; Hardware stack levels used: 1
   621 ;; Hardware stack levels required when called: 1
   622 ;; This function calls:
   623 ;;		Nothing
   624 ;; This function is called by:
   625 ;;		_SYSTEM_Initialize
   626 ;; This function uses a non-reentrant model
   627 ;;
   628                           
   629                           	psect	text2
   630   00188C                     __ptext2:
   631                           	callstack 0
   632   00188C                     _PIN_MANAGER_Initialize:
   633                           	callstack 28
   634   00188C                     
   635                           ;mcc_generated_files/pin_manager.c: 60:     LATA = 0x00;
   636   00188C  0E00               	movlw	0
   637   00188E  6E89               	movwf	137,c	;volatile
   638                           
   639                           ;mcc_generated_files/pin_manager.c: 61:     LATB = 0x00;
   640   001890  0E00               	movlw	0
   641   001892  6E8A               	movwf	138,c	;volatile
   642                           
   643                           ;mcc_generated_files/pin_manager.c: 62:     LATC = 0x00;
   644   001894  0E00               	movlw	0
   645   001896  6E8B               	movwf	139,c	;volatile
   646                           
   647                           ;mcc_generated_files/pin_manager.c: 67:     TRISA = 0xCF;
   648   001898  0ECF               	movlw	207
   649   00189A  6E92               	movwf	146,c	;volatile
   650   00189C                     
   651                           ;mcc_generated_files/pin_manager.c: 68:     TRISB = 0xFF;
   652   00189C  6893               	setf	147,c	;volatile
   653                           
   654                           ;mcc_generated_files/pin_manager.c: 69:     TRISC = 0xBF;
   655   00189E  0EBF               	movlw	191
   656   0018A0  6E94               	movwf	148,c	;volatile
   657                           
   658                           ;mcc_generated_files/pin_manager.c: 74:     ANCON0 = 0x1F;
   659   0018A2  0E1F               	movlw	31
   660   0018A4  010F               	movlb	15	; () banked
   661   0018A6  6F5D               	movwf	93,b	;volatile
   662                           
   663                           ;mcc_generated_files/pin_manager.c: 75:     ANCON1 = 0x07;
   664   0018A8  0E07               	movlw	7
   665   0018AA  6F5C               	movwf	92,b	;volatile
   666                           
   667                           ;mcc_generated_files/pin_manager.c: 80:     WPUB = 0x00;
   668   0018AC  0E00               	movlw	0
   669   0018AE  6F5B               	movwf	91,b	;volatile
   670   0018B0                     
   671                           ; BSR set to: 15
   672                           ;mcc_generated_files/pin_manager.c: 81:     INTCON2bits.nRBPU = 1;
   673   0018B0  8EF1               	bsf	241,7,c	;volatile
   674   0018B2                     
   675                           ; BSR set to: 15
   676   0018B2  0012               	return		;funcret
   677   0018B4                     __end_of_PIN_MANAGER_Initialize:
   678                           	callstack 0
   679                           
   680 ;; *************** function _OSCILLATOR_Initialize *****************
   681 ;; Defined at:
   682 ;;		line 58 in file "mcc_generated_files/mcc.c"
   683 ;; Parameters:    Size  Location     Type
   684 ;;		None
   685 ;; Auto vars:     Size  Location     Type
   686 ;;		None
   687 ;; Return value:  Size  Location     Type
   688 ;;                  1    wreg      void 
   689 ;; Registers used:
   690 ;;		wreg, status,2
   691 ;; Tracked objects:
   692 ;;		On entry : 0/0
   693 ;;		On exit  : 0/0
   694 ;;		Unchanged: 0/0
   695 ;; Data sizes:     COMRAM   BANK0   BANK1   BANK2   BANK3   BANK4   BANK5   BANK6   BANK7   BANK8   BANK9  BANK10  BANK1
      +1  BANK12  BANK13  BANK14
   696 ;;      Params:         0       0       0       0       0       0       0       0       0       0       0       0       
      +0       0       0       0
   697 ;;      Locals:         0       0       0       0       0       0       0       0       0       0       0       0       
      +0       0       0       0
   698 ;;      Temps:          0       0       0       0       0       0       0       0       0       0       0       0       
      +0       0       0       0
   699 ;;      Totals:         0       0       0       0       0       0       0       0       0       0       0       0       
      +0       0       0       0
   700 ;;Total ram usage:        0 bytes
   701 ;; Hardware stack levels used: 1
   702 ;; Hardware stack levels required when called: 1
   703 ;; This function calls:
   704 ;;		Nothing
   705 ;; This function is called by:
   706 ;;		_SYSTEM_Initialize
   707 ;; This function uses a non-reentrant model
   708 ;;
   709                           
   710                           	psect	text3
   711   001956                     __ptext3:
   712                           	callstack 0
   713   001956                     _OSCILLATOR_Initialize:
   714                           	callstack 28
   715   001956                     
   716                           ;mcc_generated_files/mcc.c: 61:     OSCCON = 0x60;
   717   001956  0E60               	movlw	96
   718   001958  6ED3               	movwf	211,c	;volatile
   719                           
   720                           ;mcc_generated_files/mcc.c: 63:     OSCCON2 = 0x00;
   721   00195A  0E00               	movlw	0
   722   00195C  6ED2               	movwf	210,c	;volatile
   723                           
   724                           ;mcc_generated_files/mcc.c: 65:     OSCTUNE = 0x00;
   725   00195E  0E00               	movlw	0
   726   001960  6E9B               	movwf	155,c	;volatile
   727                           
   728                           ;mcc_generated_files/mcc.c: 67:     REFOCON = 0x00;
   729   001962  0E00               	movlw	0
   730   001964  6E9A               	movwf	154,c	;volatile
   731   001966  0012               	return		;funcret
   732   001968                     __end_of_OSCILLATOR_Initialize:
   733                           	callstack 0
   734                           
   735 ;; *************** function _EUSART1_Initialize *****************
   736 ;; Defined at:
   737 ;;		line 66 in file "mcc_generated_files/eusart1.c"
   738 ;; Parameters:    Size  Location     Type
   739 ;;		None
   740 ;; Auto vars:     Size  Location     Type
   741 ;;		None
   742 ;; Return value:  Size  Location     Type
   743 ;;                  1    wreg      void 
   744 ;; Registers used:
   745 ;;		wreg, status,2, status,0, cstack
   746 ;; Tracked objects:
   747 ;;		On entry : 0/0
   748 ;;		On exit  : 0/0
   749 ;;		Unchanged: 0/0
   750 ;; Data sizes:     COMRAM   BANK0   BANK1   BANK2   BANK3   BANK4   BANK5   BANK6   BANK7   BANK8   BANK9  BANK10  BANK1
      +1  BANK12  BANK13  BANK14
   751 ;;      Params:         0       0       0       0       0       0       0       0       0       0       0       0       
      +0       0       0       0
   752 ;;      Locals:         0       0       0       0       0       0       0       0       0       0       0       0       
      +0       0       0       0
   753 ;;      Temps:          0       0       0       0       0       0       0       0       0       0       0       0       
      +0       0       0       0
   754 ;;      Totals:         0       0       0       0       0       0       0       0       0       0       0       0       
      +0       0       0       0
   755 ;;Total ram usage:        0 bytes
   756 ;; Hardware stack levels used: 1
   757 ;; Hardware stack levels required when called: 2
   758 ;; This function calls:
   759 ;;		_EUSART1_SetErrorHandler
   760 ;;		_EUSART1_SetFramingErrorHandler
   761 ;;		_EUSART1_SetOverrunErrorHandler
   762 ;; This function is called by:
   763 ;;		_SYSTEM_Initialize
   764 ;; This function uses a non-reentrant model
   765 ;;
   766                           
   767                           	psect	text4
   768   00168C                     __ptext4:
   769                           	callstack 0
   770   00168C                     _EUSART1_Initialize:
   771                           	callstack 27
   772   00168C                     
   773                           ;mcc_generated_files/eusart1.c: 71:     BAUDCON1 = 0x08;
   774   00168C  0E08               	movlw	8
   775   00168E  6EA7               	movwf	167,c	;volatile
   776                           
   777                           ;mcc_generated_files/eusart1.c: 74:     RCSTA1 = 0x90;
   778   001690  0E90               	movlw	144
   779   001692  6EAB               	movwf	171,c	;volatile
   780                           
   781                           ;mcc_generated_files/eusart1.c: 77:     TXSTA1 = 0x24;
   782   001694  0E24               	movlw	36
   783   001696  6EAC               	movwf	172,c	;volatile
   784                           
   785                           ;mcc_generated_files/eusart1.c: 80:     SPBRG1 = 0x08;
   786   001698  0E08               	movlw	8
   787   00169A  6EAF               	movwf	175,c	;volatile
   788                           
   789                           ;mcc_generated_files/eusart1.c: 83:     SPBRGH1 = 0x02;
   790   00169C  0E02               	movlw	2
   791   00169E  6E7D               	movwf	125,c	;volatile
   792   0016A0                     
   793                           ;mcc_generated_files/eusart1.c: 86:     EUSART1_SetFramingErrorHandler(EUSART1_DefaultFr
      +                          amingErrorHandler);
   794   0016A0  0E00               	movlw	0
   795   0016A2  6E2F               	movwf	EUSART1_SetFramingErrorHandler@interruptHandler^0,c
   796   0016A4  0E00               	movlw	0
   797   0016A6  6E30               	movwf	(EUSART1_SetFramingErrorHandler@interruptHandler+1)^0,c
   798   0016A8  ECDD  F00C         	call	_EUSART1_SetFramingErrorHandler	;wreg free
   799   0016AC                     
   800                           ;mcc_generated_files/eusart1.c: 87:     EUSART1_SetOverrunErrorHandler(EUSART1_DefaultOv
      +                          errunErrorHandler);
   801   0016AC  0E00               	movlw	0
   802   0016AE  6E2F               	movwf	EUSART1_SetOverrunErrorHandler@interruptHandler^0,c
   803   0016B0  0E00               	movlw	0
   804   0016B2  6E30               	movwf	(EUSART1_SetOverrunErrorHandler@interruptHandler+1)^0,c
   805   0016B4  ECD8  F00C         	call	_EUSART1_SetOverrunErrorHandler	;wreg free
   806   0016B8                     
   807                           ;mcc_generated_files/eusart1.c: 88:     EUSART1_SetErrorHandler(EUSART1_DefaultErrorHand
      +                          ler);
   808   0016B8  0E00               	movlw	0
   809   0016BA  6E2F               	movwf	EUSART1_SetErrorHandler@interruptHandler^0,c
   810   0016BC  0E00               	movlw	0
   811   0016BE  6E30               	movwf	(EUSART1_SetErrorHandler@interruptHandler+1)^0,c
   812   0016C0  ECE2  F00C         	call	_EUSART1_SetErrorHandler	;wreg free
   813   0016C4                     
   814                           ;mcc_generated_files/eusart1.c: 90:     eusart1RxLastError.status = 0;
   815   0016C4  0E00               	movlw	0
   816   0016C6  6E2E               	movwf	_eusart1RxLastError^0,c	;volatile
   817   0016C8  0012               	return		;funcret
   818   0016CA                     __end_of_EUSART1_Initialize:
   819                           	callstack 0
   820                           
   821 ;; *************** function _EUSART1_SetOverrunErrorHandler *****************
   822 ;; Defined at:
   823 ;;		line 167 in file "mcc_generated_files/eusart1.c"
   824 ;; Parameters:    Size  Location     Type
   825 ;;  interruptHan    2    0[COMRAM] PTR FTN()void 
   826 ;;		 -> EUSART1_DefaultOverrunErrorHandler(1), 
   827 ;; Auto vars:     Size  Location     Type
   828 ;;		None
   829 ;; Return value:  Size  Location     Type
   830 ;;                  1    wreg      void 
   831 ;; Registers used:
   832 ;;		wreg, status,2, status,0
   833 ;; Tracked objects:
   834 ;;		On entry : 0/0
   835 ;;		On exit  : 0/0
   836 ;;		Unchanged: 0/0
   837 ;; Data sizes:     COMRAM   BANK0   BANK1   BANK2   BANK3   BANK4   BANK5   BANK6   BANK7   BANK8   BANK9  BANK10  BANK1
      +1  BANK12  BANK13  BANK14
   838 ;;      Params:         2       0       0       0       0       0       0       0       0       0       0       0       
      +0       0       0       0
   839 ;;      Locals:         0       0       0       0       0       0       0       0       0       0       0       0       
      +0       0       0       0
   840 ;;      Temps:          0       0       0       0       0       0       0       0       0       0       0       0       
      +0       0       0       0
   841 ;;      Totals:         2       0       0       0       0       0       0       0       0       0       0       0       
      +0       0       0       0
   842 ;;Total ram usage:        2 bytes
   843 ;; Hardware stack levels used: 1
   844 ;; Hardware stack levels required when called: 1
   845 ;; This function calls:
   846 ;;		Nothing
   847 ;; This function is called by:
   848 ;;		_EUSART1_Initialize
   849 ;; This function uses a non-reentrant model
   850 ;;
   851                           
   852                           	psect	text5
   853   0019B0                     __ptext5:
   854                           	callstack 0
   855   0019B0                     _EUSART1_SetOverrunErrorHandler:
   856                           	callstack 27
   857   0019B0                     
   858                           ;mcc_generated_files/eusart1.c: 168:     EUSART1_OverrunErrorHandler = interruptHandler;
   859   0019B0  C02F  F04B         	movff	EUSART1_SetOverrunErrorHandler@interruptHandler,_EUSART1_OverrunErrorHandler
   860   0019B4  C030  F04C         	movff	EUSART1_SetOverrunErrorHandler@interruptHandler+1,_EUSART1_OverrunErrorHandler+1
   861   0019B8  0012               	return		;funcret
   862   0019BA                     __end_of_EUSART1_SetOverrunErrorHandler:
   863                           	callstack 0
   864                           
   865 ;; *************** function _EUSART1_SetFramingErrorHandler *****************
   866 ;; Defined at:
   867 ;;		line 163 in file "mcc_generated_files/eusart1.c"
   868 ;; Parameters:    Size  Location     Type
   869 ;;  interruptHan    2    0[COMRAM] PTR FTN()void 
   870 ;;		 -> EUSART1_DefaultFramingErrorHandler(1), 
   871 ;; Auto vars:     Size  Location     Type
   872 ;;		None
   873 ;; Return value:  Size  Location     Type
   874 ;;                  1    wreg      void 
   875 ;; Registers used:
   876 ;;		wreg, status,2, status,0
   877 ;; Tracked objects:
   878 ;;		On entry : 0/0
   879 ;;		On exit  : 0/0
   880 ;;		Unchanged: 0/0
   881 ;; Data sizes:     COMRAM   BANK0   BANK1   BANK2   BANK3   BANK4   BANK5   BANK6   BANK7   BANK8   BANK9  BANK10  BANK1
      +1  BANK12  BANK13  BANK14
   882 ;;      Params:         2       0       0       0       0       0       0       0       0       0       0       0       
      +0       0       0       0
   883 ;;      Locals:         0       0       0       0       0       0       0       0       0       0       0       0       
      +0       0       0       0
   884 ;;      Temps:          0       0       0       0       0       0       0       0       0       0       0       0       
      +0       0       0       0
   885 ;;      Totals:         2       0       0       0       0       0       0       0       0       0       0       0       
      +0       0       0       0
   886 ;;Total ram usage:        2 bytes
   887 ;; Hardware stack levels used: 1
   888 ;; Hardware stack levels required when called: 1
   889 ;; This function calls:
   890 ;;		Nothing
   891 ;; This function is called by:
   892 ;;		_EUSART1_Initialize
   893 ;; This function uses a non-reentrant model
   894 ;;
   895                           
   896                           	psect	text6
   897   0019BA                     __ptext6:
   898                           	callstack 0
   899   0019BA                     _EUSART1_SetFramingErrorHandler:
   900                           	callstack 27
   901   0019BA                     
   902                           ;mcc_generated_files/eusart1.c: 164:     EUSART1_FramingErrorHandler = interruptHandler;
   903   0019BA  C02F  F04D         	movff	EUSART1_SetFramingErrorHandler@interruptHandler,_EUSART1_FramingErrorHandler
   904   0019BE  C030  F04E         	movff	EUSART1_SetFramingErrorHandler@interruptHandler+1,_EUSART1_FramingErrorHandler+1
   905   0019C2  0012               	return		;funcret
   906   0019C4                     __end_of_EUSART1_SetFramingErrorHandler:
   907                           	callstack 0
   908                           
   909 ;; *************** function _EUSART1_SetErrorHandler *****************
   910 ;; Defined at:
   911 ;;		line 171 in file "mcc_generated_files/eusart1.c"
   912 ;; Parameters:    Size  Location     Type
   913 ;;  interruptHan    2    0[COMRAM] PTR FTN()void 
   914 ;;		 -> EUSART1_DefaultErrorHandler(1), 
   915 ;; Auto vars:     Size  Location     Type
   916 ;;		None
   917 ;; Return value:  Size  Location     Type
   918 ;;                  1    wreg      void 
   919 ;; Registers used:
   920 ;;		wreg, status,2, status,0
   921 ;; Tracked objects:
   922 ;;		On entry : 0/0
   923 ;;		On exit  : 0/0
   924 ;;		Unchanged: 0/0
   925 ;; Data sizes:     COMRAM   BANK0   BANK1   BANK2   BANK3   BANK4   BANK5   BANK6   BANK7   BANK8   BANK9  BANK10  BANK1
      +1  BANK12  BANK13  BANK14
   926 ;;      Params:         2       0       0       0       0       0       0       0       0       0       0       0       
      +0       0       0       0
   927 ;;      Locals:         0       0       0       0       0       0       0       0       0       0       0       0       
      +0       0       0       0
   928 ;;      Temps:          0       0       0       0       0       0       0       0       0       0       0       0       
      +0       0       0       0
   929 ;;      Totals:         2       0       0       0       0       0       0       0       0       0       0       0       
      +0       0       0       0
   930 ;;Total ram usage:        2 bytes
   931 ;; Hardware stack levels used: 1
   932 ;; Hardware stack levels required when called: 1
   933 ;; This function calls:
   934 ;;		Nothing
   935 ;; This function is called by:
   936 ;;		_EUSART1_Initialize
   937 ;; This function uses a non-reentrant model
   938 ;;
   939                           
   940                           	psect	text7
   941   0019C4                     __ptext7:
   942                           	callstack 0
   943   0019C4                     _EUSART1_SetErrorHandler:
   944                           	callstack 27
   945   0019C4                     
   946                           ;mcc_generated_files/eusart1.c: 172:     EUSART1_ErrorHandler = interruptHandler;
   947   0019C4  C02F  F049         	movff	EUSART1_SetErrorHandler@interruptHandler,_EUSART1_ErrorHandler
   948   0019C8  C030  F04A         	movff	EUSART1_SetErrorHandler@interruptHandler+1,_EUSART1_ErrorHandler+1
   949   0019CC  0012               	return		;funcret
   950   0019CE                     __end_of_EUSART1_SetErrorHandler:
   951                           	callstack 0
   952                           
   953 ;; *************** function _LCD_Write *****************
   954 ;; Defined at:
   955 ;;		line 10 in file "main.c"
   956 ;; Parameters:    Size  Location     Type
   957 ;;  message         2   15[COMRAM] PTR unsigned char 
   958 ;;		 -> main@message(3), 
   959 ;;  length          1   17[COMRAM] unsigned char 
   960 ;; Auto vars:     Size  Location     Type
   961 ;;		None
   962 ;; Return value:  Size  Location     Type
   963 ;;                  1    wreg      void 
   964 ;; Registers used:
   965 ;;		wreg, fsr2l, fsr2h, status,2, status,0, pcl, pclath, pclatu, tosl, tblptrl, tblptrh, tblptru, prodl, prodh, cstack
   966 ;; Tracked objects:
   967 ;;		On entry : 0/0
   968 ;;		On exit  : 0/0
   969 ;;		Unchanged: 0/0
   970 ;; Data sizes:     COMRAM   BANK0   BANK1   BANK2   BANK3   BANK4   BANK5   BANK6   BANK7   BANK8   BANK9  BANK10  BANK1
      +1  BANK12  BANK13  BANK14
   971 ;;      Params:         3       0       0       0       0       0       0       0       0       0       0       0       
      +0       0       0       0
   972 ;;      Locals:         0       0       0       0       0       0       0       0       0       0       0       0       
      +0       0       0       0
   973 ;;      Temps:          2       0       0       0       0       0       0       0       0       0       0       0       
      +0       0       0       0
   974 ;;      Totals:         5       0       0       0       0       0       0       0       0       0       0       0       
      +0       0       0       0
   975 ;;Total ram usage:        5 bytes
   976 ;; Hardware stack levels used: 1
   977 ;; Hardware stack levels required when called: 8
   978 ;; This function calls:
   979 ;;		_I2C_Close
   980 ;;		_I2C_MasterOperation
   981 ;;		_I2C_Open
   982 ;;		_I2C_SetBuffer
   983 ;; This function is called by:
   984 ;;		_main
   985 ;; This function uses a non-reentrant model
   986 ;;
   987                           
   988                           	psect	text8
   989   001512                     __ptext8:
   990                           	callstack 0
   991   001512                     _LCD_Write:
   992                           	callstack 22
   993   001512                     l2786:
   994   001512  0E28               	movlw	40
   995   001514  EC22  F009         	call	_I2C_Open
   996   001518  06E8               	decf	wreg,f,c
   997   00151A  B4D8               	btfsc	status,2,c
   998   00151C  EF92  F00A         	goto	u891
   999   001520  EF94  F00A         	goto	u890
  1000   001524                     u891:
  1001   001524  EF89  F00A         	goto	l2786
  1002   001528                     u890:
  1003   001528                     
  1004                           ;main.c: 12:     I2C_SetBuffer(message, length);
  1005   001528  C03E  F02F         	movff	LCD_Write@message,I2C_SetBuffer@buffer
  1006   00152C  C03F  F030         	movff	LCD_Write@message+1,I2C_SetBuffer@buffer+1
  1007   001530  C040  F031         	movff	LCD_Write@length,I2C_SetBuffer@bufferSize
  1008   001534  6A32               	clrf	(I2C_SetBuffer@bufferSize+1)^0,c
  1009   001536  EC6B  F00C         	call	_I2C_SetBuffer	;wreg free
  1010   00153A                     
  1011                           ;main.c: 13:     I2C_MasterOperation(0);
  1012   00153A  0E00               	movlw	0
  1013   00153C  ECE5  F00A         	call	_I2C_MasterOperation
  1014   001540                     l2792:
  1015   001540  EC31  F00C         	call	_I2C_Close	;wreg free
  1016   001544  06E8               	decf	wreg,f,c
  1017   001546  B4D8               	btfsc	status,2,c
  1018   001548  EFA8  F00A         	goto	u901
  1019   00154C  EFAA  F00A         	goto	u900
  1020   001550                     u901:
  1021   001550  EFA0  F00A         	goto	l2792
  1022   001554                     u900:
  1023   001554                     
  1024                           ;main.c: 15:     _delay((unsigned long)((1000)*(20000000/4000.0)));
  1025   001554  0E1A               	movlw	26
  1026   001556  6E42               	movwf	(??_LCD_Write+1)^0,c
  1027   001558  0E5E               	movlw	94
  1028   00155A  6E41               	movwf	??_LCD_Write^0,c
  1029   00155C  0E6E               	movlw	110
  1030   00155E                     u1297:
  1031   00155E  2EE8               	decfsz	wreg,f,c
  1032   001560  D7FE               	bra	u1297
  1033   001562  2E41               	decfsz	??_LCD_Write^0,f,c
  1034   001564  D7FC               	bra	u1297
  1035   001566  2E42               	decfsz	(??_LCD_Write+1)^0,f,c
  1036   001568  D7FA               	bra	u1297
  1037   00156A  D000               	nop2	
  1038   00156C  0012               	return		;funcret
  1039   00156E                     __end_of_LCD_Write:
  1040                           	callstack 0
  1041                           
  1042 ;; *************** function _LCD_Clear *****************
  1043 ;; Defined at:
  1044 ;;		line 19 in file "main.c"
  1045 ;; Parameters:    Size  Location     Type
  1046 ;;		None
  1047 ;; Auto vars:     Size  Location     Type
  1048 ;;		None
  1049 ;; Return value:  Size  Location     Type
  1050 ;;                  1    wreg      void 
  1051 ;; Registers used:
  1052 ;;		wreg, cstack
  1053 ;; Tracked objects:
  1054 ;;		On entry : 0/0
  1055 ;;		On exit  : 0/0
  1056 ;;		Unchanged: 0/0
  1057 ;; Data sizes:     COMRAM   BANK0   BANK1   BANK2   BANK3   BANK4   BANK5   BANK6   BANK7   BANK8   BANK9  BANK10  BANK1
      +1  BANK12  BANK13  BANK14
  1058 ;;      Params:         0       0       0       0       0       0       0       0       0       0       0       0       
      +0       0       0       0
  1059 ;;      Locals:         0       0       0       0       0       0       0       0       0       0       0       0       
      +0       0       0       0
  1060 ;;      Temps:          0       0       0       0       0       0       0       0       0       0       0       0       
      +0       0       0       0
  1061 ;;      Totals:         0       0       0       0       0       0       0       0       0       0       0       0       
      +0       0       0       0
  1062 ;;Total ram usage:        0 bytes
  1063 ;; Hardware stack levels used: 1
  1064 ;; Hardware stack levels required when called: 2
  1065 ;; This function calls:
  1066 ;;		_EUSART1_Write
  1067 ;; This function is called by:
  1068 ;;		_main
  1069 ;; This function uses a non-reentrant model
  1070 ;;
  1071                           
  1072                           	psect	text9
  1073   001986                     __ptext9:
  1074                           	callstack 0
  1075   001986                     _LCD_Clear:
  1076                           	callstack 28
  1077   001986                     
  1078                           ;main.c: 20:     EUSART1_Write(0xFE);
  1079   001986  0EFE               	movlw	254
  1080   001988  EC96  F00C         	call	_EUSART1_Write
  1081                           
  1082                           ;main.c: 21:     EUSART1_Write(0x01);
  1083   00198C  0E01               	movlw	1
  1084   00198E  EC96  F00C         	call	_EUSART1_Write
  1085   001992  0012               	return		;funcret
  1086   001994                     __end_of_LCD_Clear:
  1087                           	callstack 0
  1088                           
  1089 ;; *************** function _EUSART1_Write *****************
  1090 ;; Defined at:
  1091 ;;		line 132 in file "mcc_generated_files/eusart1.c"
  1092 ;; Parameters:    Size  Location     Type
  1093 ;;  txData          1    wreg     unsigned char 
  1094 ;; Auto vars:     Size  Location     Type
  1095 ;;  txData          1    0[COMRAM] unsigned char 
  1096 ;; Return value:  Size  Location     Type
  1097 ;;                  1    wreg      void 
  1098 ;; Registers used:
  1099 ;;		wreg
  1100 ;; Tracked objects:
  1101 ;;		On entry : 0/0
  1102 ;;		On exit  : 0/0
  1103 ;;		Unchanged: 0/0
  1104 ;; Data sizes:     COMRAM   BANK0   BANK1   BANK2   BANK3   BANK4   BANK5   BANK6   BANK7   BANK8   BANK9  BANK10  BANK1
      +1  BANK12  BANK13  BANK14
  1105 ;;      Params:         0       0       0       0       0       0       0       0       0       0       0       0       
      +0       0       0       0
  1106 ;;      Locals:         1       0       0       0       0       0       0       0       0       0       0       0       
      +0       0       0       0
  1107 ;;      Temps:          0       0       0       0       0       0       0       0       0       0       0       0       
      +0       0       0       0
  1108 ;;      Totals:         1       0       0       0       0       0       0       0       0       0       0       0       
      +0       0       0       0
  1109 ;;Total ram usage:        1 bytes
  1110 ;; Hardware stack levels used: 1
  1111 ;; Hardware stack levels required when called: 1
  1112 ;; This function calls:
  1113 ;;		Nothing
  1114 ;; This function is called by:
  1115 ;;		_LCD_Clear
  1116 ;;		_putch
  1117 ;; This function uses a non-reentrant model
  1118 ;;
  1119                           
  1120                           	psect	text10
  1121   00192C                     __ptext10:
  1122                           	callstack 0
  1123   00192C                     _EUSART1_Write:
  1124                           	callstack 28
  1125                           
  1126                           ;incstack = 0
  1127                           ;EUSART1_Write@txData stored from wreg
  1128   00192C  6E2F               	movwf	EUSART1_Write@txData^0,c
  1129   00192E                     l264:
  1130                           
  1131                           ;mcc_generated_files/eusart1.c: 134:     while(0 == PIR1bits.TX1IF)
  1132   00192E  A89E               	btfss	158,4,c	;volatile
  1133   001930  EF9C  F00C         	goto	u191
  1134   001934  EF9E  F00C         	goto	u190
  1135   001938                     u191:
  1136   001938  EF97  F00C         	goto	l264
  1137   00193C                     u190:
  1138   00193C                     
  1139                           ;mcc_generated_files/eusart1.c: 138:     TXREG1 = txData;
  1140   00193C  C02F  FFAD         	movff	EUSART1_Write@txData,4013	;volatile
  1141   001940  0012               	return		;funcret
  1142   001942                     __end_of_EUSART1_Write:
  1143                           	callstack 0
  1144                           
  1145 ;; *************** function _EEPROM_Write *****************
  1146 ;; Defined at:
  1147 ;;		line 25 in file "main.c"
  1148 ;; Parameters:    Size  Location     Type
  1149 ;;  addr            2   15[COMRAM] unsigned short 
  1150 ;;  data            1   17[COMRAM] unsigned char 
  1151 ;; Auto vars:     Size  Location     Type
  1152 ;;  buffer          3   19[COMRAM] unsigned char [3]
  1153 ;; Return value:  Size  Location     Type
  1154 ;;                  1    wreg      void 
  1155 ;; Registers used:
  1156 ;;		wreg, fsr2l, fsr2h, status,2, status,0, pcl, pclath, pclatu, tosl, tblptrl, tblptrh, tblptru, prodl, prodh, cstack
  1157 ;; Tracked objects:
  1158 ;;		On entry : 0/0
  1159 ;;		On exit  : 0/0
  1160 ;;		Unchanged: 0/0
  1161 ;; Data sizes:     COMRAM   BANK0   BANK1   BANK2   BANK3   BANK4   BANK5   BANK6   BANK7   BANK8   BANK9  BANK10  BANK1
      +1  BANK12  BANK13  BANK14
  1162 ;;      Params:         3       0       0       0       0       0       0       0       0       0       0       0       
      +0       0       0       0
  1163 ;;      Locals:         3       0       0       0       0       0       0       0       0       0       0       0       
      +0       0       0       0
  1164 ;;      Temps:          1       0       0       0       0       0       0       0       0       0       0       0       
      +0       0       0       0
  1165 ;;      Totals:         7       0       0       0       0       0       0       0       0       0       0       0       
      +0       0       0       0
  1166 ;;Total ram usage:        7 bytes
  1167 ;; Hardware stack levels used: 1
  1168 ;; Hardware stack levels required when called: 8
  1169 ;; This function calls:
  1170 ;;		_I2C_Close
  1171 ;;		_I2C_MasterOperation
  1172 ;;		_I2C_Open
  1173 ;;		_I2C_SetBuffer
  1174 ;; This function is called by:
  1175 ;;		_main
  1176 ;; This function uses a non-reentrant model
  1177 ;;
  1178                           
  1179                           	psect	text11
  1180   00143A                     __ptext11:
  1181                           	callstack 0
  1182   00143A                     _EEPROM_Write:
  1183                           	callstack 22
  1184   00143A                     l2798:
  1185   00143A  0E50               	movlw	80
  1186   00143C  EC22  F009         	call	_I2C_Open
  1187   001440  06E8               	decf	wreg,f,c
  1188   001442  B4D8               	btfsc	status,2,c
  1189   001444  EF26  F00A         	goto	u911
  1190   001448  EF28  F00A         	goto	u910
  1191   00144C                     u911:
  1192   00144C  EF1D  F00A         	goto	l2798
  1193   001450                     u910:
  1194   001450                     
  1195                           ;main.c: 27:     uint8_t buffer[3] = { (addr >> 8) & 0xFF, addr & 0xFF, data };
  1196   001450  0E00               	movlw	0
  1197   001452  6E42               	movwf	EEPROM_Write@buffer^0,c
  1198   001454  0E00               	movlw	0
  1199   001456  6E43               	movwf	(EEPROM_Write@buffer+1)^0,c
  1200   001458  0E00               	movlw	0
  1201   00145A  6E44               	movwf	(EEPROM_Write@buffer+2)^0,c
  1202   00145C  503F               	movf	(EEPROM_Write@addr+1)^0,w,c
  1203   00145E  6E42               	movwf	EEPROM_Write@buffer^0,c
  1204   001460  C03E  F043         	movff	EEPROM_Write@addr,EEPROM_Write@buffer+1
  1205   001464  C040  F044         	movff	EEPROM_Write@data,EEPROM_Write@buffer+2
  1206   001468                     
  1207                           ;main.c: 28:     I2C_SetBuffer(buffer, 3);
  1208   001468  0E42               	movlw	low EEPROM_Write@buffer
  1209   00146A  6E2F               	movwf	I2C_SetBuffer@buffer^0,c
  1210   00146C  0E00               	movlw	high EEPROM_Write@buffer
  1211   00146E  6E30               	movwf	(I2C_SetBuffer@buffer+1)^0,c
  1212   001470  0E00               	movlw	0
  1213   001472  6E32               	movwf	(I2C_SetBuffer@bufferSize+1)^0,c
  1214   001474  0E03               	movlw	3
  1215   001476  6E31               	movwf	I2C_SetBuffer@bufferSize^0,c
  1216   001478  EC6B  F00C         	call	_I2C_SetBuffer	;wreg free
  1217   00147C                     
  1218                           ;main.c: 29:     I2C_MasterOperation(0);
  1219   00147C  0E00               	movlw	0
  1220   00147E  ECE5  F00A         	call	_I2C_MasterOperation
  1221   001482                     l2810:
  1222   001482  EC31  F00C         	call	_I2C_Close	;wreg free
  1223   001486  06E8               	decf	wreg,f,c
  1224   001488  B4D8               	btfsc	status,2,c
  1225   00148A  EF49  F00A         	goto	u921
  1226   00148E  EF4B  F00A         	goto	u920
  1227   001492                     u921:
  1228   001492  EF41  F00A         	goto	l2810
  1229   001496                     u920:
  1230   001496                     
  1231                           ;main.c: 31:     _delay((unsigned long)((5)*(20000000/4000.0)));
  1232   001496  0E21               	movlw	33
  1233   001498  6E41               	movwf	??_EEPROM_Write^0,c
  1234   00149A  0E76               	movlw	118
  1235   00149C                     u1307:
  1236   00149C  2EE8               	decfsz	wreg,f,c
  1237   00149E  D7FE               	bra	u1307
  1238   0014A0  2E41               	decfsz	??_EEPROM_Write^0,f,c
  1239   0014A2  D7FC               	bra	u1307
  1240   0014A4  D000               	nop2	
  1241   0014A6  0012               	return		;funcret
  1242   0014A8                     __end_of_EEPROM_Write:
  1243                           	callstack 0
  1244                           
  1245 ;; *************** function _EEPROM_Read *****************
  1246 ;; Defined at:
  1247 ;;		line 35 in file "main.c"
  1248 ;; Parameters:    Size  Location     Type
  1249 ;;  addr            2   15[COMRAM] unsigned short 
  1250 ;;  buffer          2   17[COMRAM] PTR unsigned char 
  1251 ;;		 -> main@message(3), 
  1252 ;;  length          1   19[COMRAM] unsigned char 
  1253 ;; Auto vars:     Size  Location     Type
  1254 ;;  addrBuffer      2   21[COMRAM] unsigned char [2]
  1255 ;; Return value:  Size  Location     Type
  1256 ;;                  1    wreg      void 
  1257 ;; Registers used:
  1258 ;;		wreg, fsr2l, fsr2h, status,2, status,0, pcl, pclath, pclatu, tosl, tblptrl, tblptrh, tblptru, prodl, prodh, cstack
  1259 ;; Tracked objects:
  1260 ;;		On entry : 0/0
  1261 ;;		On exit  : 0/0
  1262 ;;		Unchanged: 0/0
  1263 ;; Data sizes:     COMRAM   BANK0   BANK1   BANK2   BANK3   BANK4   BANK5   BANK6   BANK7   BANK8   BANK9  BANK10  BANK1
      +1  BANK12  BANK13  BANK14
  1264 ;;      Params:         5       0       0       0       0       0       0       0       0       0       0       0       
      +0       0       0       0
  1265 ;;      Locals:         2       0       0       0       0       0       0       0       0       0       0       0       
      +0       0       0       0
  1266 ;;      Temps:          1       0       0       0       0       0       0       0       0       0       0       0       
      +0       0       0       0
  1267 ;;      Totals:         8       0       0       0       0       0       0       0       0       0       0       0       
      +0       0       0       0
  1268 ;;Total ram usage:        8 bytes
  1269 ;; Hardware stack levels used: 1
  1270 ;; Hardware stack levels required when called: 8
  1271 ;; This function calls:
  1272 ;;		_I2C_Close
  1273 ;;		_I2C_MasterOperation
  1274 ;;		_I2C_Open
  1275 ;;		_I2C_SetBuffer
  1276 ;; This function is called by:
  1277 ;;		_main
  1278 ;; This function uses a non-reentrant model
  1279 ;;
  1280                           
  1281                           	psect	text12
  1282   0010E6                     __ptext12:
  1283                           	callstack 0
  1284   0010E6                     _EEPROM_Read:
  1285                           	callstack 22
  1286   0010E6                     l2816:
  1287   0010E6  0E50               	movlw	80
  1288   0010E8  EC22  F009         	call	_I2C_Open
  1289   0010EC  06E8               	decf	wreg,f,c
  1290   0010EE  B4D8               	btfsc	status,2,c
  1291   0010F0  EF7C  F008         	goto	u931
  1292   0010F4  EF7E  F008         	goto	u930
  1293   0010F8                     u931:
  1294   0010F8  EF73  F008         	goto	l2816
  1295   0010FC                     u930:
  1296   0010FC                     
  1297                           ;main.c: 37:     uint8_t addrBuffer[2] = { (addr >> 8) & 0xFF, addr & 0xFF };
  1298   0010FC  0E00               	movlw	0
  1299   0010FE  6E45               	movwf	(EEPROM_Read@addrBuffer+1)^0,c
  1300   001100  0E00               	movlw	0
  1301   001102  6E44               	movwf	EEPROM_Read@addrBuffer^0,c
  1302   001104  503F               	movf	(EEPROM_Read@addr+1)^0,w,c
  1303   001106  6E44               	movwf	EEPROM_Read@addrBuffer^0,c
  1304   001108  C03E  F045         	movff	EEPROM_Read@addr,EEPROM_Read@addrBuffer+1
  1305   00110C                     
  1306                           ;main.c: 38:     I2C_SetBuffer(addrBuffer, 2);
  1307   00110C  0E44               	movlw	low EEPROM_Read@addrBuffer
  1308   00110E  6E2F               	movwf	I2C_SetBuffer@buffer^0,c
  1309   001110  0E00               	movlw	high EEPROM_Read@addrBuffer
  1310   001112  6E30               	movwf	(I2C_SetBuffer@buffer+1)^0,c
  1311   001114  0E00               	movlw	0
  1312   001116  6E32               	movwf	(I2C_SetBuffer@bufferSize+1)^0,c
  1313   001118  0E02               	movlw	2
  1314   00111A  6E31               	movwf	I2C_SetBuffer@bufferSize^0,c
  1315   00111C  EC6B  F00C         	call	_I2C_SetBuffer	;wreg free
  1316   001120                     
  1317                           ;main.c: 39:     I2C_MasterOperation(0);
  1318   001120  0E00               	movlw	0
  1319   001122  ECE5  F00A         	call	_I2C_MasterOperation
  1320   001126                     l2826:
  1321   001126  EC31  F00C         	call	_I2C_Close	;wreg free
  1322   00112A  06E8               	decf	wreg,f,c
  1323   00112C  B4D8               	btfsc	status,2,c
  1324   00112E  EF9B  F008         	goto	u941
  1325   001132  EF9D  F008         	goto	u940
  1326   001136                     u941:
  1327   001136  EF93  F008         	goto	l2826
  1328   00113A                     u940:
  1329   00113A                     
  1330                           ;main.c: 41:     _delay((unsigned long)((5)*(20000000/4000.0)));
  1331   00113A  0E21               	movlw	33
  1332   00113C  6E43               	movwf	??_EEPROM_Read^0,c
  1333   00113E  0E76               	movlw	118
  1334   001140                     u1317:
  1335   001140  2EE8               	decfsz	wreg,f,c
  1336   001142  D7FE               	bra	u1317
  1337   001144  2E43               	decfsz	??_EEPROM_Read^0,f,c
  1338   001146  D7FC               	bra	u1317
  1339   001148  D000               	nop2	
  1340   00114A                     l2830:
  1341   00114A  0E50               	movlw	80
  1342   00114C  EC22  F009         	call	_I2C_Open
  1343   001150  06E8               	decf	wreg,f,c
  1344   001152  B4D8               	btfsc	status,2,c
  1345   001154  EFAE  F008         	goto	u951
  1346   001158  EFB0  F008         	goto	u950
  1347   00115C                     u951:
  1348   00115C  EFA5  F008         	goto	l2830
  1349   001160                     u950:
  1350   001160                     
  1351                           ;main.c: 45:     I2C_SetBuffer(buffer, length);
  1352   001160  C040  F02F         	movff	EEPROM_Read@buffer,I2C_SetBuffer@buffer
  1353   001164  C041  F030         	movff	EEPROM_Read@buffer+1,I2C_SetBuffer@buffer+1
  1354   001168  C042  F031         	movff	EEPROM_Read@length,I2C_SetBuffer@bufferSize
  1355   00116C  6A32               	clrf	(I2C_SetBuffer@bufferSize+1)^0,c
  1356   00116E  EC6B  F00C         	call	_I2C_SetBuffer	;wreg free
  1357   001172                     
  1358                           ;main.c: 46:     I2C_MasterOperation(1);
  1359   001172  0E01               	movlw	1
  1360   001174  ECE5  F00A         	call	_I2C_MasterOperation
  1361   001178                     l2836:
  1362   001178  EC31  F00C         	call	_I2C_Close	;wreg free
  1363   00117C  06E8               	decf	wreg,f,c
  1364   00117E  B4D8               	btfsc	status,2,c
  1365   001180  EFC4  F008         	goto	u961
  1366   001184  EFC6  F008         	goto	u960
  1367   001188                     u961:
  1368   001188  EFBC  F008         	goto	l2836
  1369   00118C                     u960:
  1370   00118C                     
  1371                           ;main.c: 48:     _delay((unsigned long)((5)*(20000000/4000.0)));
  1372   00118C  0E21               	movlw	33
  1373   00118E  6E43               	movwf	??_EEPROM_Read^0,c
  1374   001190  0E76               	movlw	118
  1375   001192                     u1327:
  1376   001192  2EE8               	decfsz	wreg,f,c
  1377   001194  D7FE               	bra	u1327
  1378   001196  2E43               	decfsz	??_EEPROM_Read^0,f,c
  1379   001198  D7FC               	bra	u1327
  1380   00119A  D000               	nop2	
  1381   00119C  0012               	return		;funcret
  1382   00119E                     __end_of_EEPROM_Read:
  1383                           	callstack 0
  1384                           
  1385 ;; *************** function _I2C_Open *****************
  1386 ;; Defined at:
  1387 ;;		line 176 in file "mcc_generated_files/i2c_master.c"
  1388 ;; Parameters:    Size  Location     Type
  1389 ;;  address         1    wreg     unsigned char 
  1390 ;; Auto vars:     Size  Location     Type
  1391 ;;  address         1    0[COMRAM] unsigned char 
  1392 ;;  returnValue     1    1[COMRAM] enum E355
  1393 ;; Return value:  Size  Location     Type
  1394 ;;                  1    wreg      enum E355
  1395 ;; Registers used:
  1396 ;;		wreg, status,2, status,0, cstack
  1397 ;; Tracked objects:
  1398 ;;		On entry : 0/0
  1399 ;;		On exit  : 0/0
  1400 ;;		Unchanged: 0/0
  1401 ;; Data sizes:     COMRAM   BANK0   BANK1   BANK2   BANK3   BANK4   BANK5   BANK6   BANK7   BANK8   BANK9  BANK10  BANK1
      +1  BANK12  BANK13  BANK14
  1402 ;;      Params:         0       0       0       0       0       0       0       0       0       0       0       0       
      +0       0       0       0
  1403 ;;      Locals:         2       0       0       0       0       0       0       0       0       0       0       0       
      +0       0       0       0
  1404 ;;      Temps:          0       0       0       0       0       0       0       0       0       0       0       0       
      +0       0       0       0
  1405 ;;      Totals:         2       0       0       0       0       0       0       0       0       0       0       0       
      +0       0       0       0
  1406 ;;Total ram usage:        2 bytes
  1407 ;; Hardware stack levels used: 1
  1408 ;; Hardware stack levels required when called: 2
  1409 ;; This function calls:
  1410 ;;		_I2C_MasterClearIrq
  1411 ;;		_I2C_MasterOpen
  1412 ;; This function is called by:
  1413 ;;		_LCD_Write
  1414 ;;		_EEPROM_Write
  1415 ;;		_EEPROM_Read
  1416 ;;		_i2c_write1ByteRegister
  1417 ;;		_i2c_writeNBytes
  1418 ;;		_i2c_read1ByteRegister
  1419 ;;		_i2c_read2ByteRegister
  1420 ;;		_i2c_write2ByteRegister
  1421 ;;		_i2c_readDataBlock
  1422 ;;		_i2c_readNBytes
  1423 ;;		_I2C_Read1ByteRegister
  1424 ;;		_I2C_Read2ByteRegister
  1425 ;;		_I2C_Write1ByteRegister
  1426 ;;		_I2C_Write2ByteRegister
  1427 ;;		_I2C_WriteNBytes
  1428 ;;		_I2C_ReadNBytes
  1429 ;;		_I2C_ReadDataBlock
  1430 ;; This function uses a non-reentrant model
  1431 ;;
  1432                           
  1433                           	psect	text13
  1434   001244                     __ptext13:
  1435                           	callstack 0
  1436   001244                     _I2C_Open:
  1437                           	callstack 27
  1438                           
  1439                           ;incstack = 0
  1440                           ;I2C_Open@address stored from wreg
  1441   001244  6E2F               	movwf	I2C_Open@address^0,c
  1442   001246                     
  1443                           ;mcc_generated_files/i2c_master.c: 176: i2c_error_t I2C_Open(i2c_address_t address);mcc_
      +                          generated_files/i2c_master.c: 177: {;mcc_generated_files/i2c_master.c: 178:     i2c_erro
      +                          r_t returnValue = I2C_BUSY;
  1444   001246  0E01               	movlw	1
  1445   001248  6E30               	movwf	I2C_Open@returnValue^0,c
  1446   00124A                     
  1447                           ;mcc_generated_files/i2c_master.c: 180:     if(!I2C_Status.inUse)
  1448   00124A  B424               	btfsc	(_I2C_Status+35)^0,2,c
  1449   00124C  EF2A  F009         	goto	u171
  1450   001250  EF2C  F009         	goto	u170
  1451   001254                     u171:
  1452   001254  EF66  F009         	goto	l1920
  1453   001258                     u170:
  1454   001258                     
  1455                           ;mcc_generated_files/i2c_master.c: 181:     {;mcc_generated_files/i2c_master.c: 182:    
      +                               I2C_Status.address = address;
  1456   001258  C02F  F01D         	movff	I2C_Open@address,_I2C_Status+28
  1457   00125C                     
  1458                           ;mcc_generated_files/i2c_master.c: 183:         I2C_Status.busy = 0;
  1459   00125C  9224               	bcf	(_I2C_Status+35)^0,1,c
  1460   00125E                     
  1461                           ;mcc_generated_files/i2c_master.c: 184:         I2C_Status.inUse = 1;
  1462   00125E  8424               	bsf	(_I2C_Status+35)^0,2,c
  1463   001260                     
  1464                           ;mcc_generated_files/i2c_master.c: 185:         I2C_Status.addressNackCheck = 0;
  1465   001260  9024               	bcf	(_I2C_Status+35)^0,0,c
  1466   001262                     
  1467                           ;mcc_generated_files/i2c_master.c: 186:         I2C_Status.state = I2C_RESET;
  1468   001262  0E0E               	movlw	14
  1469   001264  6E22               	movwf	(_I2C_Status+33)^0,c
  1470   001266                     
  1471                           ;mcc_generated_files/i2c_master.c: 187:         I2C_Status.time_out_value = 500;
  1472   001266  0E01               	movlw	1
  1473   001268  6E1C               	movwf	(_I2C_Status+27)^0,c
  1474   00126A  0EF4               	movlw	244
  1475   00126C  6E1B               	movwf	(_I2C_Status+26)^0,c
  1476   00126E                     
  1477                           ;mcc_generated_files/i2c_master.c: 188:         I2C_Status.bufferFree = 1;
  1478   00126E  8624               	bsf	(_I2C_Status+35)^0,3,c
  1479   001270                     
  1480                           ;mcc_generated_files/i2c_master.c: 191:         I2C_Status.callbackTable[I2C_DATA_COMPLE
      +                          TE]=I2C_CallbackReturnStop;
  1481   001270  0E48               	movlw	low _I2C_CallbackReturnStop
  1482   001272  6E01               	movwf	_I2C_Status^0,c
  1483   001274  0E1A               	movlw	high _I2C_CallbackReturnStop
  1484   001276  6E02               	movwf	(_I2C_Status+1)^0,c
  1485   001278                     
  1486                           ;mcc_generated_files/i2c_master.c: 192:         I2C_Status.callbackPayload[I2C_DATA_COMP
      +                          LETE] = ((void*)0);
  1487   001278  0E00               	movlw	0
  1488   00127A  6E0D               	movwf	(_I2C_Status+12)^0,c
  1489   00127C  0E00               	movlw	0
  1490   00127E  6E0E               	movwf	(_I2C_Status+13)^0,c
  1491   001280                     
  1492                           ;mcc_generated_files/i2c_master.c: 193:         I2C_Status.callbackTable[I2C_WRITE_COLLI
      +                          SION]=I2C_CallbackReturnStop;
  1493   001280  0E48               	movlw	low _I2C_CallbackReturnStop
  1494   001282  6E03               	movwf	(_I2C_Status+2)^0,c
  1495   001284  0E1A               	movlw	high _I2C_CallbackReturnStop
  1496   001286  6E04               	movwf	(_I2C_Status+3)^0,c
  1497   001288                     
  1498                           ;mcc_generated_files/i2c_master.c: 194:         I2C_Status.callbackPayload[I2C_WRITE_COL
      +                          LISION] = ((void*)0);
  1499   001288  0E00               	movlw	0
  1500   00128A  6E0F               	movwf	(_I2C_Status+14)^0,c
  1501   00128C  0E00               	movlw	0
  1502   00128E  6E10               	movwf	(_I2C_Status+15)^0,c
  1503   001290                     
  1504                           ;mcc_generated_files/i2c_master.c: 195:         I2C_Status.callbackTable[I2C_ADDR_NACK]=
      +                          I2C_CallbackReturnStop;
  1505   001290  0E48               	movlw	low _I2C_CallbackReturnStop
  1506   001292  6E05               	movwf	(_I2C_Status+4)^0,c
  1507   001294  0E1A               	movlw	high _I2C_CallbackReturnStop
  1508   001296  6E06               	movwf	(_I2C_Status+5)^0,c
  1509   001298                     
  1510                           ;mcc_generated_files/i2c_master.c: 196:         I2C_Status.callbackPayload[I2C_ADDR_NACK
      +                          ] = ((void*)0);
  1511   001298  0E00               	movlw	0
  1512   00129A  6E11               	movwf	(_I2C_Status+16)^0,c
  1513   00129C  0E00               	movlw	0
  1514   00129E  6E12               	movwf	(_I2C_Status+17)^0,c
  1515   0012A0                     
  1516                           ;mcc_generated_files/i2c_master.c: 197:         I2C_Status.callbackTable[I2C_DATA_NACK]=
      +                          I2C_CallbackReturnStop;
  1517   0012A0  0E48               	movlw	low _I2C_CallbackReturnStop
  1518   0012A2  6E07               	movwf	(_I2C_Status+6)^0,c
  1519   0012A4  0E1A               	movlw	high _I2C_CallbackReturnStop
  1520   0012A6  6E08               	movwf	(_I2C_Status+7)^0,c
  1521   0012A8                     
  1522                           ;mcc_generated_files/i2c_master.c: 198:         I2C_Status.callbackPayload[I2C_DATA_NACK
      +                          ] = ((void*)0);
  1523   0012A8  0E00               	movlw	0
  1524   0012AA  6E13               	movwf	(_I2C_Status+18)^0,c
  1525   0012AC  0E00               	movlw	0
  1526   0012AE  6E14               	movwf	(_I2C_Status+19)^0,c
  1527   0012B0                     
  1528                           ;mcc_generated_files/i2c_master.c: 199:         I2C_Status.callbackTable[I2C_TIMEOUT]=I2
      +                          C_CallbackReturnReset;
  1529   0012B0  0E44               	movlw	low _I2C_CallbackReturnReset
  1530   0012B2  6E09               	movwf	(_I2C_Status+8)^0,c
  1531   0012B4  0E1A               	movlw	high _I2C_CallbackReturnReset
  1532   0012B6  6E0A               	movwf	(_I2C_Status+9)^0,c
  1533   0012B8                     
  1534                           ;mcc_generated_files/i2c_master.c: 200:         I2C_Status.callbackPayload[I2C_TIMEOUT] 
      +                          = ((void*)0);
  1535   0012B8  0E00               	movlw	0
  1536   0012BA  6E15               	movwf	(_I2C_Status+20)^0,c
  1537   0012BC  0E00               	movlw	0
  1538   0012BE  6E16               	movwf	(_I2C_Status+21)^0,c
  1539   0012C0                     
  1540                           ;mcc_generated_files/i2c_master.c: 202:         I2C_MasterClearIrq();
  1541   0012C0  EC30  F00D         	call	_I2C_MasterClearIrq	;wreg free
  1542   0012C4                     
  1543                           ;mcc_generated_files/i2c_master.c: 203:         I2C_MasterOpen();
  1544   0012C4  EC5A  F00C         	call	_I2C_MasterOpen	;wreg free
  1545   0012C8                     
  1546                           ;mcc_generated_files/i2c_master.c: 204:         returnValue = I2C_NOERR;
  1547   0012C8  0E00               	movlw	0
  1548   0012CA  6E30               	movwf	I2C_Open@returnValue^0,c
  1549   0012CC                     l1920:
  1550                           
  1551                           ;mcc_generated_files/i2c_master.c: 206:     return returnValue;
  1552   0012CC  5030               	movf	I2C_Open@returnValue^0,w,c
  1553   0012CE  0012               	return		;funcret
  1554   0012D0                     __end_of_I2C_Open:
  1555                           	callstack 0
  1556                           
  1557 ;; *************** function _I2C_MasterOpen *****************
  1558 ;; Defined at:
  1559 ;;		line 543 in file "mcc_generated_files/i2c_master.c"
  1560 ;; Parameters:    Size  Location     Type
  1561 ;;		None
  1562 ;; Auto vars:     Size  Location     Type
  1563 ;;		None
  1564 ;; Return value:  Size  Location     Type
  1565 ;;                  1    wreg      _Bool 
  1566 ;; Registers used:
  1567 ;;		wreg, status,2
  1568 ;; Tracked objects:
  1569 ;;		On entry : 0/0
  1570 ;;		On exit  : 0/0
  1571 ;;		Unchanged: 0/0
  1572 ;; Data sizes:     COMRAM   BANK0   BANK1   BANK2   BANK3   BANK4   BANK5   BANK6   BANK7   BANK8   BANK9  BANK10  BANK1
      +1  BANK12  BANK13  BANK14
  1573 ;;      Params:         0       0       0       0       0       0       0       0       0       0       0       0       
      +0       0       0       0
  1574 ;;      Locals:         0       0       0       0       0       0       0       0       0       0       0       0       
      +0       0       0       0
  1575 ;;      Temps:          0       0       0       0       0       0       0       0       0       0       0       0       
      +0       0       0       0
  1576 ;;      Totals:         0       0       0       0       0       0       0       0       0       0       0       0       
      +0       0       0       0
  1577 ;;Total ram usage:        0 bytes
  1578 ;; Hardware stack levels used: 1
  1579 ;; Hardware stack levels required when called: 1
  1580 ;; This function calls:
  1581 ;;		Nothing
  1582 ;; This function is called by:
  1583 ;;		_I2C_Open
  1584 ;; This function uses a non-reentrant model
  1585 ;;
  1586                           
  1587                           	psect	text14
  1588   0018B4                     __ptext14:
  1589                           	callstack 0
  1590   0018B4                     _I2C_MasterOpen:
  1591                           	callstack 27
  1592   0018B4                     
  1593                           ;mcc_generated_files/i2c_master.c: 545:     if(!SSPCON1bits.SSPEN)
  1594   0018B4  BAC6               	btfsc	198,5,c	;volatile
  1595   0018B6  EF5F  F00C         	goto	u151
  1596   0018BA  EF61  F00C         	goto	u150
  1597   0018BE                     u151:
  1598   0018BE  EF6A  F00C         	goto	l612
  1599   0018C2                     u150:
  1600   0018C2                     
  1601                           ;mcc_generated_files/i2c_master.c: 546:     {;mcc_generated_files/i2c_master.c: 547:    
      +                               SSPSTAT = 0x00;
  1602   0018C2  0E00               	movlw	0
  1603   0018C4  6EC7               	movwf	199,c	;volatile
  1604                           
  1605                           ;mcc_generated_files/i2c_master.c: 548:         SSPCON1 = 0x08;
  1606   0018C6  0E08               	movlw	8
  1607   0018C8  6EC6               	movwf	198,c	;volatile
  1608                           
  1609                           ;mcc_generated_files/i2c_master.c: 549:         SSPCON2 = 0x00;
  1610   0018CA  0E00               	movlw	0
  1611   0018CC  6EC5               	movwf	197,c	;volatile
  1612                           
  1613                           ;mcc_generated_files/i2c_master.c: 550:         SSPADD = 0x31;
  1614   0018CE  0E31               	movlw	49
  1615   0018D0  6EC8               	movwf	200,c	;volatile
  1616   0018D2                     
  1617                           ;mcc_generated_files/i2c_master.c: 551:         SSPCON1bits.SSPEN = 1;
  1618   0018D2  8AC6               	bsf	198,5,c	;volatile
  1619   0018D4                     l612:
  1620   0018D4  0012               	return		;funcret
  1621   0018D6                     __end_of_I2C_MasterOpen:
  1622                           	callstack 0
  1623                           
  1624 ;; *************** function _I2C_MasterOperation *****************
  1625 ;; Defined at:
  1626 ;;		line 224 in file "mcc_generated_files/i2c_master.c"
  1627 ;; Parameters:    Size  Location     Type
  1628 ;;  read            1    wreg     _Bool 
  1629 ;; Auto vars:     Size  Location     Type
  1630 ;;  read            1   13[COMRAM] _Bool 
  1631 ;;  returnValue     1   14[COMRAM] enum E355
  1632 ;; Return value:  Size  Location     Type
  1633 ;;                  1    wreg      enum E355
  1634 ;; Registers used:
  1635 ;;		wreg, fsr2l, fsr2h, status,2, status,0, pcl, pclath, pclatu, tosl, tblptrl, tblptrh, tblptru, prodl, prodh, cstack
  1636 ;; Tracked objects:
  1637 ;;		On entry : 0/0
  1638 ;;		On exit  : 0/0
  1639 ;;		Unchanged: 0/0
  1640 ;; Data sizes:     COMRAM   BANK0   BANK1   BANK2   BANK3   BANK4   BANK5   BANK6   BANK7   BANK8   BANK9  BANK10  BANK1
      +1  BANK12  BANK13  BANK14
  1641 ;;      Params:         0       0       0       0       0       0       0       0       0       0       0       0       
      +0       0       0       0
  1642 ;;      Locals:         2       0       0       0       0       0       0       0       0       0       0       0       
      +0       0       0       0
  1643 ;;      Temps:          0       0       0       0       0       0       0       0       0       0       0       0       
      +0       0       0       0
  1644 ;;      Totals:         2       0       0       0       0       0       0       0       0       0       0       0       
      +0       0       0       0
  1645 ;;Total ram usage:        2 bytes
  1646 ;; Hardware stack levels used: 1
  1647 ;; Hardware stack levels required when called: 7
  1648 ;; This function calls:
  1649 ;;		_I2C_MasterStart
  1650 ;;		_I2C_Poller
  1651 ;; This function is called by:
  1652 ;;		_LCD_Write
  1653 ;;		_EEPROM_Write
  1654 ;;		_EEPROM_Read
  1655 ;;		_I2C_MasterRead
  1656 ;;		_I2C_MasterWrite
  1657 ;; This function uses a non-reentrant model
  1658 ;;
  1659                           
  1660                           	psect	text15
  1661   0015CA                     __ptext15:
  1662                           	callstack 0
  1663   0015CA                     _I2C_MasterOperation:
  1664                           	callstack 22
  1665                           
  1666                           ;incstack = 0
  1667                           ;I2C_MasterOperation@read stored from wreg
  1668   0015CA  6E3C               	movwf	I2C_MasterOperation@read^0,c
  1669   0015CC                     
  1670                           ;mcc_generated_files/i2c_master.c: 224: i2c_error_t I2C_MasterOperation(_Bool read);mcc_
      +                          generated_files/i2c_master.c: 225: {;mcc_generated_files/i2c_master.c: 226:     i2c_erro
      +                          r_t returnValue = I2C_BUSY;
  1671   0015CC  0E01               	movlw	1
  1672   0015CE  6E3D               	movwf	I2C_MasterOperation@returnValue^0,c
  1673   0015D0                     
  1674                           ;mcc_generated_files/i2c_master.c: 227:     if(!I2C_Status.busy)
  1675   0015D0  B224               	btfsc	(_I2C_Status+35)^0,1,c
  1676   0015D2  EFED  F00A         	goto	u871
  1677   0015D6  EFEF  F00A         	goto	u870
  1678   0015DA                     u871:
  1679   0015DA  EF04  F00B         	goto	l2776
  1680   0015DE                     u870:
  1681   0015DE                     
  1682                           ;mcc_generated_files/i2c_master.c: 228:     {;mcc_generated_files/i2c_master.c: 229:    
      +                               I2C_Status.busy = 1;
  1683   0015DE  8224               	bsf	(_I2C_Status+35)^0,1,c
  1684   0015E0                     
  1685                           ;mcc_generated_files/i2c_master.c: 230:         returnValue = I2C_NOERR;
  1686   0015E0  0E00               	movlw	0
  1687   0015E2  6E3D               	movwf	I2C_MasterOperation@returnValue^0,c
  1688   0015E4                     
  1689                           ;mcc_generated_files/i2c_master.c: 232:         if(read)
  1690   0015E4  503C               	movf	I2C_MasterOperation@read^0,w,c
  1691   0015E6  B4D8               	btfsc	status,2,c
  1692   0015E8  EFF8  F00A         	goto	u881
  1693   0015EC  EFFA  F00A         	goto	u880
  1694   0015F0                     u881:
  1695   0015F0  EFFE  F00A         	goto	l2770
  1696   0015F4                     u880:
  1697   0015F4                     
  1698                           ;mcc_generated_files/i2c_master.c: 233:         {;mcc_generated_files/i2c_master.c: 234:
      +                                       I2C_Status.state = I2C_SEND_ADR_READ;
  1699   0015F4  0E01               	movlw	1
  1700   0015F6  6E22               	movwf	(_I2C_Status+33)^0,c
  1701                           
  1702                           ;mcc_generated_files/i2c_master.c: 235:         }
  1703   0015F8  EF00  F00B         	goto	l2772
  1704   0015FC                     l2770:
  1705                           
  1706                           ;mcc_generated_files/i2c_master.c: 237:         {;mcc_generated_files/i2c_master.c: 238:
      +                                       I2C_Status.state = I2C_SEND_ADR_WRITE;
  1707   0015FC  0E02               	movlw	2
  1708   0015FE  6E22               	movwf	(_I2C_Status+33)^0,c
  1709   001600                     l2772:
  1710                           
  1711                           ;mcc_generated_files/i2c_master.c: 240:         I2C_MasterStart();
  1712   001600  EC2A  F00D         	call	_I2C_MasterStart	;wreg free
  1713   001604                     
  1714                           ;mcc_generated_files/i2c_master.c: 241:         I2C_Poller();
  1715   001604  EC7C  F00C         	call	_I2C_Poller	;wreg free
  1716   001608                     l2776:
  1717                           
  1718                           ;mcc_generated_files/i2c_master.c: 243:     return returnValue;
  1719   001608  503D               	movf	I2C_MasterOperation@returnValue^0,w,c
  1720   00160A  0012               	return		;funcret
  1721   00160C                     __end_of_I2C_MasterOperation:
  1722                           	callstack 0
  1723                           
  1724 ;; *************** function _I2C_Poller *****************
  1725 ;; Defined at:
  1726 ;;		line 312 in file "mcc_generated_files/i2c_master.c"
  1727 ;; Parameters:    Size  Location     Type
  1728 ;;		None
  1729 ;; Auto vars:     Size  Location     Type
  1730 ;;		None
  1731 ;; Return value:  Size  Location     Type
  1732 ;;                  1    wreg      void 
  1733 ;; Registers used:
  1734 ;;		wreg, fsr2l, fsr2h, status,2, status,0, pcl, pclath, pclatu, tosl, tblptrl, tblptrh, tblptru, prodl, prodh, cstack
  1735 ;; Tracked objects:
  1736 ;;		On entry : 0/0
  1737 ;;		On exit  : 0/0
  1738 ;;		Unchanged: 0/0
  1739 ;; Data sizes:     COMRAM   BANK0   BANK1   BANK2   BANK3   BANK4   BANK5   BANK6   BANK7   BANK8   BANK9  BANK10  BANK1
      +1  BANK12  BANK13  BANK14
  1740 ;;      Params:         0       0       0       0       0       0       0       0       0       0       0       0       
      +0       0       0       0
  1741 ;;      Locals:         0       0       0       0       0       0       0       0       0       0       0       0       
      +0       0       0       0
  1742 ;;      Temps:          0       0       0       0       0       0       0       0       0       0       0       0       
      +0       0       0       0
  1743 ;;      Totals:         0       0       0       0       0       0       0       0       0       0       0       0       
      +0       0       0       0
  1744 ;;Total ram usage:        0 bytes
  1745 ;; Hardware stack levels used: 1
  1746 ;; Hardware stack levels required when called: 6
  1747 ;; This function calls:
  1748 ;;		_I2C_MasterFsm
  1749 ;;		_I2C_MasterWaitForEvent
  1750 ;; This function is called by:
  1751 ;;		_I2C_MasterOperation
  1752 ;; This function uses a non-reentrant model
  1753 ;;
  1754                           
  1755                           	psect	text16
  1756   0018F8                     __ptext16:
  1757                           	callstack 0
  1758   0018F8                     _I2C_Poller:
  1759                           	callstack 22
  1760   0018F8                     
  1761                           ;mcc_generated_files/i2c_master.c: 314:     while(I2C_Status.busy)
  1762   0018F8  EF82  F00C         	goto	l2746
  1763   0018FC                     l2742:
  1764                           
  1765                           ;mcc_generated_files/i2c_master.c: 315:     {;mcc_generated_files/i2c_master.c: 316:    
      +                               I2C_MasterWaitForEvent();
  1766   0018FC  ECB4  F00C         	call	_I2C_MasterWaitForEvent	;wreg free
  1767   001900                     
  1768                           ;mcc_generated_files/i2c_master.c: 317:         I2C_MasterFsm();
  1769   001900  ECB7  F00A         	call	_I2C_MasterFsm	;wreg free
  1770   001904                     l2746:
  1771                           
  1772                           ;mcc_generated_files/i2c_master.c: 314:     while(I2C_Status.busy)
  1773   001904  B224               	btfsc	(_I2C_Status+35)^0,1,c
  1774   001906  EF87  F00C         	goto	u861
  1775   00190A  EF89  F00C         	goto	u860
  1776   00190E                     u861:
  1777   00190E  EF7E  F00C         	goto	l2742
  1778   001912                     u860:
  1779   001912  0012               	return		;funcret
  1780   001914                     __end_of_I2C_Poller:
  1781                           	callstack 0
  1782                           
  1783 ;; *************** function _I2C_MasterWaitForEvent *****************
  1784 ;; Defined at:
  1785 ;;		line 650 in file "mcc_generated_files/i2c_master.c"
  1786 ;; Parameters:    Size  Location     Type
  1787 ;;		None
  1788 ;; Auto vars:     Size  Location     Type
  1789 ;;		None
  1790 ;; Return value:  Size  Location     Type
  1791 ;;                  1    wreg      void 
  1792 ;; Registers used:
  1793 ;;		None
  1794 ;; Tracked objects:
  1795 ;;		On entry : 0/0
  1796 ;;		On exit  : 0/0
  1797 ;;		Unchanged: 0/0
  1798 ;; Data sizes:     COMRAM   BANK0   BANK1   BANK2   BANK3   BANK4   BANK5   BANK6   BANK7   BANK8   BANK9  BANK10  BANK1
      +1  BANK12  BANK13  BANK14
  1799 ;;      Params:         0       0       0       0       0       0       0       0       0       0       0       0       
      +0       0       0       0
  1800 ;;      Locals:         0       0       0       0       0       0       0       0       0       0       0       0       
      +0       0       0       0
  1801 ;;      Temps:          0       0       0       0       0       0       0       0       0       0       0       0       
      +0       0       0       0
  1802 ;;      Totals:         0       0       0       0       0       0       0       0       0       0       0       0       
      +0       0       0       0
  1803 ;;Total ram usage:        0 bytes
  1804 ;; Hardware stack levels used: 1
  1805 ;; Hardware stack levels required when called: 1
  1806 ;; This function calls:
  1807 ;;		Nothing
  1808 ;; This function is called by:
  1809 ;;		_I2C_Poller
  1810 ;; This function uses a non-reentrant model
  1811 ;;
  1812                           
  1813                           	psect	text17
  1814   001968                     __ptext17:
  1815                           	callstack 0
  1816   001968                     _I2C_MasterWaitForEvent:
  1817                           	callstack 26
  1818   001968                     l669:
  1819                           
  1820                           ;mcc_generated_files/i2c_master.c: 653:     {;mcc_generated_files/i2c_master.c: 654:    
      +                               if(PIR1bits.SSPIF)
  1821   001968  A69E               	btfss	158,3,c	;volatile
  1822   00196A  EFB9  F00C         	goto	u111
  1823   00196E  EFBB  F00C         	goto	u110
  1824   001972                     u111:
  1825   001972  EFB4  F00C         	goto	l669
  1826   001976                     u110:
  1827   001976  0012               	return		;funcret
  1828   001978                     __end_of_I2C_MasterWaitForEvent:
  1829                           	callstack 0
  1830                           
  1831 ;; *************** function _I2C_MasterFsm *****************
  1832 ;; Defined at:
  1833 ;;		line 321 in file "mcc_generated_files/i2c_master.c"
  1834 ;; Parameters:    Size  Location     Type
  1835 ;;		None
  1836 ;; Auto vars:     Size  Location     Type
  1837 ;;		None
  1838 ;; Return value:  Size  Location     Type
  1839 ;;                  1    wreg      void 
  1840 ;; Registers used:
  1841 ;;		wreg, fsr2l, fsr2h, status,2, status,0, pcl, pclath, pclatu, tosl, tblptrl, tblptrh, tblptru, prodl, prodh, cstack
  1842 ;; Tracked objects:
  1843 ;;		On entry : 0/0
  1844 ;;		On exit  : 0/0
  1845 ;;		Unchanged: 0/0
  1846 ;; Data sizes:     COMRAM   BANK0   BANK1   BANK2   BANK3   BANK4   BANK5   BANK6   BANK7   BANK8   BANK9  BANK10  BANK1
      +1  BANK12  BANK13  BANK14
  1847 ;;      Params:         0       0       0       0       0       0       0       0       0       0       0       0       
      +0       0       0       0
  1848 ;;      Locals:         0       0       0       0       0       0       0       0       0       0       0       0       
      +0       0       0       0
  1849 ;;      Temps:          0       0       0       0       0       0       0       0       0       0       0       0       
      +0       0       0       0
  1850 ;;      Totals:         0       0       0       0       0       0       0       0       0       0       0       0       
      +0       0       0       0
  1851 ;;Total ram usage:        0 bytes
  1852 ;; Hardware stack levels used: 1
  1853 ;; Hardware stack levels required when called: 5
  1854 ;; This function calls:
  1855 ;;		_I2C_DO_ADDRESS_NACK
  1856 ;;		_I2C_DO_IDLE
  1857 ;;		_I2C_DO_RCEN
  1858 ;;		_I2C_DO_RESET
  1859 ;;		_I2C_DO_RX
  1860 ;;		_I2C_DO_RX_ACK
  1861 ;;		_I2C_DO_RX_NACK_RESTART
  1862 ;;		_I2C_DO_RX_NACK_STOP
  1863 ;;		_I2C_DO_SEND_ADR_READ
  1864 ;;		_I2C_DO_SEND_ADR_WRITE
  1865 ;;		_I2C_DO_SEND_RESTART
  1866 ;;		_I2C_DO_SEND_RESTART_READ
  1867 ;;		_I2C_DO_SEND_RESTART_WRITE
  1868 ;;		_I2C_DO_SEND_STOP
  1869 ;;		_I2C_DO_TX
  1870 ;;		_I2C_DO_TX_EMPTY
  1871 ;;		_I2C_MasterClearIrq
  1872 ;;		_I2C_MasterIsNack
  1873 ;; This function is called by:
  1874 ;;		_I2C_Poller
  1875 ;; This function uses a non-reentrant model
  1876 ;;
  1877                           
  1878                           	psect	text18
  1879   00156E                     __ptext18:
  1880                           	callstack 0
  1881   00156E                     _I2C_MasterFsm:
  1882                           	callstack 22
  1883   00156E                     
  1884                           ;mcc_generated_files/i2c_master.c: 323:     I2C_MasterClearIrq();
  1885   00156E  EC30  F00D         	call	_I2C_MasterClearIrq	;wreg free
  1886   001572                     
  1887                           ;mcc_generated_files/i2c_master.c: 325:     if(I2C_Status.addressNackCheck && I2C_Master
      +                          IsNack())
  1888   001572  A024               	btfss	(_I2C_Status+35)^0,0,c
  1889   001574  EFBE  F00A         	goto	u831
  1890   001578  EFC0  F00A         	goto	u830
  1891   00157C                     u831:
  1892   00157C  EFCC  F00A         	goto	l2732
  1893   001580                     u830:
  1894   001580  ECA1  F00C         	call	_I2C_MasterIsNack	;wreg free
  1895   001584  0900               	iorlw	0
  1896   001586  B4D8               	btfsc	status,2,c
  1897   001588  EFC8  F00A         	goto	u841
  1898   00158C  EFCA  F00A         	goto	u840
  1899   001590                     u841:
  1900   001590  EFCC  F00A         	goto	l2732
  1901   001594                     u840:
  1902   001594                     
  1903                           ;mcc_generated_files/i2c_master.c: 326:     {;mcc_generated_files/i2c_master.c: 327:    
      +                               I2C_Status.state = I2C_ADDRESS_NACK;
  1904   001594  0E0F               	movlw	15
  1905   001596  6E22               	movwf	(_I2C_Status+33)^0,c
  1906   001598                     l2732:
  1907                           
  1908                           ;mcc_generated_files/i2c_master.c: 329:     I2C_Status.state = i2c_fsmStateTable[I2C_Sta
      +                          tus.state]();
  1909   001598  5022               	movf	(_I2C_Status+33)^0,w,c
  1910   00159A  0D02               	mullw	2
  1911   00159C  0E01               	movlw	low _i2c_fsmStateTable
  1912   00159E  24F3               	addwf	243,w,c
  1913   0015A0  6EF6               	movwf	tblptrl,c
  1914   0015A2  0E10               	movlw	high _i2c_fsmStateTable
  1915   0015A4  20F4               	addwfc	244,w,c
  1916   0015A6  6EF7               	movwf	tblptrh,c
  1917   0015A8                     	if	0	;There are less than 3 active tblptr bytes
  1918   0015A8                     	endif
  1919   0015A8  D802               	call	u858
  1920   0015AA  EFE3  F00A         	goto	u859
  1921   0015AE                     u858:
  1922   0015AE  0005               	push	
  1923   0015B0  6EFA               	movwf	pclath,c
  1924   0015B2  0009               	tblrd		*+
  1925   0015B4  50F5               	movf	tablat,w,c
  1926   0015B6  6EFD               	movwf	tosl,c
  1927   0015B8  0009               	tblrd		*+
  1928   0015BA  50F5               	movf	tablat,w,c
  1929   0015BC  6EFE               	movwf	tosh,c
  1930   0015BE  50F8               	movf	tblptru,w,c
  1931   0015C0  6EFF               	movwf	tosu,c
  1932   0015C2  50FA               	movf	pclath,w,c
  1933   0015C4  0012               	return		;indir
  1934   0015C6                     u859:
  1935   0015C6  6E22               	movwf	(_I2C_Status+33)^0,c
  1936   0015C8  0012               	return		;funcret
  1937   0015CA                     __end_of_I2C_MasterFsm:
  1938                           	callstack 0
  1939                           
  1940 ;; *************** function _I2C_DO_ADDRESS_NACK *****************
  1941 ;; Defined at:
  1942 ;;		line 500 in file "mcc_generated_files/i2c_master.c"
  1943 ;; Parameters:    Size  Location     Type
  1944 ;;		None
  1945 ;; Auto vars:     Size  Location     Type
  1946 ;;		None
  1947 ;; Return value:  Size  Location     Type
  1948 ;;                  1    wreg      enum E12586
  1949 ;; Registers used:
  1950 ;;		wreg, fsr2l, fsr2h, status,2, status,0, pcl, pclath, pclatu, tosl, prodl, prodh, cstack
  1951 ;; Tracked objects:
  1952 ;;		On entry : 0/0
  1953 ;;		On exit  : 0/0
  1954 ;;		Unchanged: 0/0
  1955 ;; Data sizes:     COMRAM   BANK0   BANK1   BANK2   BANK3   BANK4   BANK5   BANK6   BANK7   BANK8   BANK9  BANK10  BANK1
      +1  BANK12  BANK13  BANK14
  1956 ;;      Params:         0       0       0       0       0       0       0       0       0       0       0       0       
      +0       0       0       0
  1957 ;;      Locals:         0       0       0       0       0       0       0       0       0       0       0       0       
      +0       0       0       0
  1958 ;;      Temps:          2       0       0       0       0       0       0       0       0       0       0       0       
      +0       0       0       0
  1959 ;;      Totals:         2       0       0       0       0       0       0       0       0       0       0       0       
      +0       0       0       0
  1960 ;;Total ram usage:        2 bytes
  1961 ;; Hardware stack levels used: 1
  1962 ;; Hardware stack levels required when called: 4
  1963 ;; This function calls:
  1964 ;;		Absolute function
  1965 ;;		_I2C_CallbackReturnReset
  1966 ;;		_I2C_CallbackReturnStop
  1967 ;;		_I2C_DO_SEND_RESTART
  1968 ;;		_I2C_DO_SEND_STOP
  1969 ;;		_rd1RegCompleteHandler
  1970 ;;		_rd1RegCompleteHandler@i2c_master_example$F145
  1971 ;;		_rd2RegCompleteHandler
  1972 ;;		_rd2RegCompleteHandler@i2c_master_example$F156
  1973 ;;		_rdBlkRegCompleteHandler
  1974 ;;		_rdBlkRegCompleteHandler@i2c_master_example$F179
  1975 ;;		_wr1RegCompleteHandler
  1976 ;;		_wr1RegCompleteHandler@i2c_master_example$F162
  1977 ;;		_wr2RegCompleteHandler
  1978 ;;		_wr2RegCompleteHandler@i2c_master_example$F168
  1979 ;; This function is called by:
  1980 ;;		_I2C_MasterFsm
  1981 ;; This function uses a non-reentrant model
  1982 ;;
  1983                           
  1984                           	psect	text19
  1985   0014A8                     __ptext19:
  1986                           	callstack 0
  1987   0014A8                     _I2C_DO_ADDRESS_NACK:
  1988                           	callstack 22
  1989   0014A8                     
  1990                           ;mcc_generated_files/i2c_master.c: 502:     I2C_Status.addressNackCheck = 0;
  1991   0014A8  9024               	bcf	(_I2C_Status+35)^0,0,c
  1992   0014AA                     
  1993                           ;mcc_generated_files/i2c_master.c: 503:     I2C_Status.error = I2C_FAIL;
  1994   0014AA  0E02               	movlw	2
  1995   0014AC  6E23               	movwf	(_I2C_Status+34)^0,c
  1996                           
  1997                           ;mcc_generated_files/i2c_master.c: 504:     switch(I2C_Status.callbackTable[I2C_ADDR_NAC
      +                          K](I2C_Status.callbackPayload[I2C_ADDR_NACK]))
  1998   0014AE  EF61  F00A         	goto	l2718
  1999   0014B2                     l2708:
  2000                           
  2001                           ;mcc_generated_files/i2c_master.c: 508:             return I2C_DO_SEND_RESTART();
  2002   0014B2  EC06  F00D         	call	_I2C_DO_SEND_RESTART	;wreg free
  2003   0014B6  EF88  F00A         	goto	l591
  2004   0014BA                     l2712:
  2005                           
  2006                           ;mcc_generated_files/i2c_master.c: 510:             return I2C_DO_SEND_STOP();
  2007   0014BA  EC02  F00D         	call	_I2C_DO_SEND_STOP	;wreg free
  2008   0014BE  EF88  F00A         	goto	l591
  2009   0014C2                     l2718:
  2010   0014C2  C011  F038         	movff	_I2C_Status+16,I2C_CallbackReturnReset@funPtr
  2011   0014C6  C012  F039         	movff	_I2C_Status+17,I2C_CallbackReturnReset@funPtr+1
  2012   0014CA  EE20  F005         	lfsr	2,_I2C_Status+4
  2013   0014CE  D802               	call	u828
  2014   0014D0  EF74  F00A         	goto	u829
  2015   0014D4                     u828:
  2016   0014D4  0005               	push	
  2017   0014D6  6EFA               	movwf	pclath,c
  2018   0014D8  50DE               	movf	postinc2,w,c
  2019   0014DA  6EFD               	movwf	tosl,c
  2020   0014DC  50DE               	movf	postinc2,w,c
  2021   0014DE  6EFE               	movwf	tosh,c
  2022   0014E0  50F8               	movf	tblptru,w,c
  2023   0014E2  6EFF               	movwf	tosu,c
  2024   0014E4  50FA               	movf	pclath,w,c
  2025   0014E6  0012               	return		;indir
  2026   0014E8                     u829:
  2027   0014E8  6E3A               	movwf	??_I2C_DO_ADDRESS_NACK^0,c
  2028   0014EA  6A3B               	clrf	(??_I2C_DO_ADDRESS_NACK+1)^0,c
  2029                           
  2030                           ; Switch on 2 bytes has been partitioned into a top level switch of size 1, and 1 sub-sw
      +                          itches
  2031                           ; Switch size 1, requested type "simple"
  2032                           ; Number of cases is 1, Range of values is 0 to 0
  2033                           ; switch strategies available:
  2034                           ; Name         Instructions Cycles
  2035                           ; simple_byte            4     3 (average)
  2036                           ;	Chosen strategy is simple_byte
  2037   0014EC  503B               	movf	(??_I2C_DO_ADDRESS_NACK+1)^0,w,c
  2038   0014EE  0A00               	xorlw	0	; case 0
  2039   0014F0  B4D8               	btfsc	status,2,c
  2040   0014F2  EF7D  F00A         	goto	l3172
  2041   0014F6  EF5D  F00A         	goto	l2712
  2042   0014FA                     l3172:
  2043                           
  2044                           ; Switch size 1, requested type "simple"
  2045                           ; Number of cases is 2, Range of values is 2 to 3
  2046                           ; switch strategies available:
  2047                           ; Name         Instructions Cycles
  2048                           ; simple_byte            7     4 (average)
  2049                           ;	Chosen strategy is simple_byte
  2050   0014FA  503A               	movf	??_I2C_DO_ADDRESS_NACK^0,w,c
  2051   0014FC  0A02               	xorlw	2	; case 2
  2052   0014FE  B4D8               	btfsc	status,2,c
  2053   001500  EF59  F00A         	goto	l2708
  2054   001504  0A01               	xorlw	1	; case 3
  2055   001506  B4D8               	btfsc	status,2,c
  2056   001508  EF59  F00A         	goto	l2708
  2057   00150C  EF5D  F00A         	goto	l2712
  2058   001510                     l591:
  2059   001510  0012               	return		;funcret
  2060   001512                     __end_of_I2C_DO_ADDRESS_NACK:
  2061                           	callstack 0
  2062                           
  2063 ;; *************** function _I2C_DO_RESET *****************
  2064 ;; Defined at:
  2065 ;;		line 494 in file "mcc_generated_files/i2c_master.c"
  2066 ;; Parameters:    Size  Location     Type
  2067 ;;		None
  2068 ;; Auto vars:     Size  Location     Type
  2069 ;;		None
  2070 ;; Return value:  Size  Location     Type
  2071 ;;                  1    wreg      enum E12586
  2072 ;; Registers used:
  2073 ;;		wreg, status,2
  2074 ;; Tracked objects:
  2075 ;;		On entry : 0/0
  2076 ;;		On exit  : 0/0
  2077 ;;		Unchanged: 0/0
  2078 ;; Data sizes:     COMRAM   BANK0   BANK1   BANK2   BANK3   BANK4   BANK5   BANK6   BANK7   BANK8   BANK9  BANK10  BANK1
      +1  BANK12  BANK13  BANK14
  2079 ;;      Params:         0       0       0       0       0       0       0       0       0       0       0       0       
      +0       0       0       0
  2080 ;;      Locals:         0       0       0       0       0       0       0       0       0       0       0       0       
      +0       0       0       0
  2081 ;;      Temps:          0       0       0       0       0       0       0       0       0       0       0       0       
      +0       0       0       0
  2082 ;;      Totals:         0       0       0       0       0       0       0       0       0       0       0       0       
      +0       0       0       0
  2083 ;;Total ram usage:        0 bytes
  2084 ;; Hardware stack levels used: 1
  2085 ;; Hardware stack levels required when called: 1
  2086 ;; This function calls:
  2087 ;;		Nothing
  2088 ;; This function is called by:
  2089 ;;		_I2C_MasterFsm
  2090 ;; This function uses a non-reentrant model
  2091 ;;
  2092                           
  2093                           	psect	text20
  2094   0019CE                     __ptext20:
  2095                           	callstack 0
  2096   0019CE                     _I2C_DO_RESET:
  2097                           	callstack 25
  2098   0019CE                     
  2099                           ;mcc_generated_files/i2c_master.c: 496:     I2C_Status.busy = 0;
  2100   0019CE  9224               	bcf	(_I2C_Status+35)^0,1,c
  2101   0019D0                     
  2102                           ;mcc_generated_files/i2c_master.c: 497:     I2C_Status.error = I2C_NOERR;
  2103   0019D0  0E00               	movlw	0
  2104   0019D2  6E23               	movwf	(_I2C_Status+34)^0,c
  2105   0019D4                     
  2106                           ;mcc_generated_files/i2c_master.c: 498:     return I2C_RESET;
  2107   0019D4  0E0E               	movlw	14
  2108   0019D6  0012               	return		;funcret
  2109   0019D8                     __end_of_I2C_DO_RESET:
  2110                           	callstack 0
  2111                           
  2112 ;; *************** function _I2C_DO_RX_NACK_RESTART *****************
  2113 ;; Defined at:
  2114 ;;		line 488 in file "mcc_generated_files/i2c_master.c"
  2115 ;; Parameters:    Size  Location     Type
  2116 ;;		None
  2117 ;; Auto vars:     Size  Location     Type
  2118 ;;		None
  2119 ;; Return value:  Size  Location     Type
  2120 ;;                  1    wreg      enum E12586
  2121 ;; Registers used:
  2122 ;;		wreg, cstack
  2123 ;; Tracked objects:
  2124 ;;		On entry : 0/0
  2125 ;;		On exit  : 0/0
  2126 ;;		Unchanged: 0/0
  2127 ;; Data sizes:     COMRAM   BANK0   BANK1   BANK2   BANK3   BANK4   BANK5   BANK6   BANK7   BANK8   BANK9  BANK10  BANK1
      +1  BANK12  BANK13  BANK14
  2128 ;;      Params:         0       0       0       0       0       0       0       0       0       0       0       0       
      +0       0       0       0
  2129 ;;      Locals:         0       0       0       0       0       0       0       0       0       0       0       0       
      +0       0       0       0
  2130 ;;      Temps:          0       0       0       0       0       0       0       0       0       0       0       0       
      +0       0       0       0
  2131 ;;      Totals:         0       0       0       0       0       0       0       0       0       0       0       0       
      +0       0       0       0
  2132 ;;Total ram usage:        0 bytes
  2133 ;; Hardware stack levels used: 1
  2134 ;; Hardware stack levels required when called: 2
  2135 ;; This function calls:
  2136 ;;		_I2C_MasterSendNack
  2137 ;; This function is called by:
  2138 ;;		_I2C_DO_RX
  2139 ;;		_I2C_MasterFsm
  2140 ;; This function uses a non-reentrant model
  2141 ;;
  2142                           
  2143                           	psect	text21
  2144   0019EC                     __ptext21:
  2145                           	callstack 0
  2146   0019EC                     _I2C_DO_RX_NACK_RESTART:
  2147                           	callstack 24
  2148   0019EC                     
  2149                           ;mcc_generated_files/i2c_master.c: 490:     I2C_MasterSendNack();
  2150   0019EC  EC19  F00D         	call	_I2C_MasterSendNack	;wreg free
  2151   0019F0                     
  2152                           ;mcc_generated_files/i2c_master.c: 491:     return I2C_SEND_RESTART;
  2153   0019F0  0E09               	movlw	9
  2154   0019F2  0012               	return		;funcret
  2155   0019F4                     __end_of_I2C_DO_RX_NACK_RESTART:
  2156                           	callstack 0
  2157                           
  2158 ;; *************** function _I2C_DO_RX_NACK_STOP *****************
  2159 ;; Defined at:
  2160 ;;		line 482 in file "mcc_generated_files/i2c_master.c"
  2161 ;; Parameters:    Size  Location     Type
  2162 ;;		None
  2163 ;; Auto vars:     Size  Location     Type
  2164 ;;		None
  2165 ;; Return value:  Size  Location     Type
  2166 ;;                  1    wreg      enum E12586
  2167 ;; Registers used:
  2168 ;;		wreg, cstack
  2169 ;; Tracked objects:
  2170 ;;		On entry : 0/0
  2171 ;;		On exit  : 0/0
  2172 ;;		Unchanged: 0/0
  2173 ;; Data sizes:     COMRAM   BANK0   BANK1   BANK2   BANK3   BANK4   BANK5   BANK6   BANK7   BANK8   BANK9  BANK10  BANK1
      +1  BANK12  BANK13  BANK14
  2174 ;;      Params:         0       0       0       0       0       0       0       0       0       0       0       0       
      +0       0       0       0
  2175 ;;      Locals:         0       0       0       0       0       0       0       0       0       0       0       0       
      +0       0       0       0
  2176 ;;      Temps:          0       0       0       0       0       0       0       0       0       0       0       0       
      +0       0       0       0
  2177 ;;      Totals:         0       0       0       0       0       0       0       0       0       0       0       0       
      +0       0       0       0
  2178 ;;Total ram usage:        0 bytes
  2179 ;; Hardware stack levels used: 1
  2180 ;; Hardware stack levels required when called: 2
  2181 ;; This function calls:
  2182 ;;		_I2C_MasterSendNack
  2183 ;; This function is called by:
  2184 ;;		_I2C_DO_RX
  2185 ;;		_I2C_MasterFsm
  2186 ;; This function uses a non-reentrant model
  2187 ;;
  2188                           
  2189                           	psect	text22
  2190   0019F4                     __ptext22:
  2191                           	callstack 0
  2192   0019F4                     _I2C_DO_RX_NACK_STOP:
  2193                           	callstack 24
  2194   0019F4                     
  2195                           ;mcc_generated_files/i2c_master.c: 484:     I2C_MasterSendNack();
  2196   0019F4  EC19  F00D         	call	_I2C_MasterSendNack	;wreg free
  2197   0019F8                     
  2198                           ;mcc_generated_files/i2c_master.c: 485:     return I2C_SEND_STOP;
  2199   0019F8  0E0A               	movlw	10
  2200   0019FA  0012               	return		;funcret
  2201   0019FC                     __end_of_I2C_DO_RX_NACK_STOP:
  2202                           	callstack 0
  2203                           
  2204 ;; *************** function _I2C_DO_RX_ACK *****************
  2205 ;; Defined at:
  2206 ;;		line 475 in file "mcc_generated_files/i2c_master.c"
  2207 ;; Parameters:    Size  Location     Type
  2208 ;;		None
  2209 ;; Auto vars:     Size  Location     Type
  2210 ;;		None
  2211 ;; Return value:  Size  Location     Type
  2212 ;;                  1    wreg      enum E12586
  2213 ;; Registers used:
  2214 ;;		wreg, cstack
  2215 ;; Tracked objects:
  2216 ;;		On entry : 0/0
  2217 ;;		On exit  : 0/0
  2218 ;;		Unchanged: 0/0
  2219 ;; Data sizes:     COMRAM   BANK0   BANK1   BANK2   BANK3   BANK4   BANK5   BANK6   BANK7   BANK8   BANK9  BANK10  BANK1
      +1  BANK12  BANK13  BANK14
  2220 ;;      Params:         0       0       0       0       0       0       0       0       0       0       0       0       
      +0       0       0       0
  2221 ;;      Locals:         0       0       0       0       0       0       0       0       0       0       0       0       
      +0       0       0       0
  2222 ;;      Temps:          0       0       0       0       0       0       0       0       0       0       0       0       
      +0       0       0       0
  2223 ;;      Totals:         0       0       0       0       0       0       0       0       0       0       0       0       
      +0       0       0       0
  2224 ;;Total ram usage:        0 bytes
  2225 ;; Hardware stack levels used: 1
  2226 ;; Hardware stack levels required when called: 2
  2227 ;; This function calls:
  2228 ;;		_I2C_MasterSendAck
  2229 ;; This function is called by:
  2230 ;;		_I2C_MasterFsm
  2231 ;; This function uses a non-reentrant model
  2232 ;;
  2233                           
  2234                           	psect	text23
  2235   0019FC                     __ptext23:
  2236                           	callstack 0
  2237   0019FC                     _I2C_DO_RX_ACK:
  2238                           	callstack 24
  2239   0019FC                     
  2240                           ;mcc_generated_files/i2c_master.c: 477:     I2C_MasterSendAck();
  2241   0019FC  EC16  F00D         	call	_I2C_MasterSendAck	;wreg free
  2242   001A00                     
  2243                           ;mcc_generated_files/i2c_master.c: 478:     return I2C_RCEN;
  2244   001A00  0E05               	movlw	5
  2245   001A02  0012               	return		;funcret
  2246   001A04                     __end_of_I2C_DO_RX_ACK:
  2247                           	callstack 0
  2248                           
  2249 ;; *************** function _I2C_DO_SEND_STOP *****************
  2250 ;; Defined at:
  2251 ;;		line 469 in file "mcc_generated_files/i2c_master.c"
  2252 ;; Parameters:    Size  Location     Type
  2253 ;;		None
  2254 ;; Auto vars:     Size  Location     Type
  2255 ;;		None
  2256 ;; Return value:  Size  Location     Type
  2257 ;;                  1    wreg      enum E12586
  2258 ;; Registers used:
  2259 ;;		wreg, cstack
  2260 ;; Tracked objects:
  2261 ;;		On entry : 0/0
  2262 ;;		On exit  : 0/0
  2263 ;;		Unchanged: 0/0
  2264 ;; Data sizes:     COMRAM   BANK0   BANK1   BANK2   BANK3   BANK4   BANK5   BANK6   BANK7   BANK8   BANK9  BANK10  BANK1
      +1  BANK12  BANK13  BANK14
  2265 ;;      Params:         0       0       0       0       0       0       0       0       0       0       0       0       
      +0       0       0       0
  2266 ;;      Locals:         0       0       0       0       0       0       0       0       0       0       0       0       
      +0       0       0       0
  2267 ;;      Temps:          0       0       0       0       0       0       0       0       0       0       0       0       
      +0       0       0       0
  2268 ;;      Totals:         0       0       0       0       0       0       0       0       0       0       0       0       
      +0       0       0       0
  2269 ;;Total ram usage:        0 bytes
  2270 ;; Hardware stack levels used: 1
  2271 ;; Hardware stack levels required when called: 2
  2272 ;; This function calls:
  2273 ;;		_I2C_MasterStop
  2274 ;; This function is called by:
  2275 ;;		_I2C_DO_TX
  2276 ;;		_I2C_DO_TX_EMPTY
  2277 ;;		_I2C_DO_ADDRESS_NACK
  2278 ;;		_I2C_MasterFsm
  2279 ;; This function uses a non-reentrant model
  2280 ;;
  2281                           
  2282                           	psect	text24
  2283   001A04                     __ptext24:
  2284                           	callstack 0
  2285   001A04                     _I2C_DO_SEND_STOP:
  2286                           	callstack 23
  2287   001A04                     
  2288                           ;mcc_generated_files/i2c_master.c: 471:     I2C_MasterStop();
  2289   001A04  EC26  F00D         	call	_I2C_MasterStop	;wreg free
  2290   001A08                     
  2291                           ;mcc_generated_files/i2c_master.c: 472:     return I2C_IDLE;
  2292   001A08  0E00               	movlw	0
  2293   001A0A  0012               	return		;funcret
  2294   001A0C                     __end_of_I2C_DO_SEND_STOP:
  2295                           	callstack 0
  2296                           
  2297 ;; *************** function _I2C_DO_SEND_RESTART *****************
  2298 ;; Defined at:
  2299 ;;		line 463 in file "mcc_generated_files/i2c_master.c"
  2300 ;; Parameters:    Size  Location     Type
  2301 ;;		None
  2302 ;; Auto vars:     Size  Location     Type
  2303 ;;		None
  2304 ;; Return value:  Size  Location     Type
  2305 ;;                  1    wreg      enum E12586
  2306 ;; Registers used:
  2307 ;;		wreg, cstack
  2308 ;; Tracked objects:
  2309 ;;		On entry : 0/0
  2310 ;;		On exit  : 0/0
  2311 ;;		Unchanged: 0/0
  2312 ;; Data sizes:     COMRAM   BANK0   BANK1   BANK2   BANK3   BANK4   BANK5   BANK6   BANK7   BANK8   BANK9  BANK10  BANK1
      +1  BANK12  BANK13  BANK14
  2313 ;;      Params:         0       0       0       0       0       0       0       0       0       0       0       0       
      +0       0       0       0
  2314 ;;      Locals:         0       0       0       0       0       0       0       0       0       0       0       0       
      +0       0       0       0
  2315 ;;      Temps:          0       0       0       0       0       0       0       0       0       0       0       0       
      +0       0       0       0
  2316 ;;      Totals:         0       0       0       0       0       0       0       0       0       0       0       0       
      +0       0       0       0
  2317 ;;Total ram usage:        0 bytes
  2318 ;; Hardware stack levels used: 1
  2319 ;; Hardware stack levels required when called: 2
  2320 ;; This function calls:
  2321 ;;		_I2C_MasterEnableRestart
  2322 ;; This function is called by:
  2323 ;;		_I2C_DO_TX_EMPTY
  2324 ;;		_I2C_DO_ADDRESS_NACK
  2325 ;;		_I2C_MasterFsm
  2326 ;; This function uses a non-reentrant model
  2327 ;;
  2328                           
  2329                           	psect	text25
  2330   001A0C                     __ptext25:
  2331                           	callstack 0
  2332   001A0C                     _I2C_DO_SEND_RESTART:
  2333                           	callstack 23
  2334   001A0C                     
  2335                           ;mcc_generated_files/i2c_master.c: 465:     I2C_MasterEnableRestart();
  2336   001A0C  EC28  F00D         	call	_I2C_MasterEnableRestart	;wreg free
  2337   001A10                     
  2338                           ;mcc_generated_files/i2c_master.c: 466:     return I2C_SEND_ADR_READ;
  2339   001A10  0E01               	movlw	1
  2340   001A12  0012               	return		;funcret
  2341   001A14                     __end_of_I2C_DO_SEND_RESTART:
  2342                           	callstack 0
  2343                           
  2344 ;; *************** function _I2C_DO_SEND_RESTART_WRITE *****************
  2345 ;; Defined at:
  2346 ;;		line 456 in file "mcc_generated_files/i2c_master.c"
  2347 ;; Parameters:    Size  Location     Type
  2348 ;;		None
  2349 ;; Auto vars:     Size  Location     Type
  2350 ;;		None
  2351 ;; Return value:  Size  Location     Type
  2352 ;;                  1    wreg      enum E12586
  2353 ;; Registers used:
  2354 ;;		wreg, cstack
  2355 ;; Tracked objects:
  2356 ;;		On entry : 0/0
  2357 ;;		On exit  : 0/0
  2358 ;;		Unchanged: 0/0
  2359 ;; Data sizes:     COMRAM   BANK0   BANK1   BANK2   BANK3   BANK4   BANK5   BANK6   BANK7   BANK8   BANK9  BANK10  BANK1
      +1  BANK12  BANK13  BANK14
  2360 ;;      Params:         0       0       0       0       0       0       0       0       0       0       0       0       
      +0       0       0       0
  2361 ;;      Locals:         0       0       0       0       0       0       0       0       0       0       0       0       
      +0       0       0       0
  2362 ;;      Temps:          0       0       0       0       0       0       0       0       0       0       0       0       
      +0       0       0       0
  2363 ;;      Totals:         0       0       0       0       0       0       0       0       0       0       0       0       
      +0       0       0       0
  2364 ;;Total ram usage:        0 bytes
  2365 ;; Hardware stack levels used: 1
  2366 ;; Hardware stack levels required when called: 2
  2367 ;; This function calls:
  2368 ;;		_I2C_MasterEnableRestart
  2369 ;; This function is called by:
  2370 ;;		_I2C_DO_TX
  2371 ;;		_I2C_MasterFsm
  2372 ;; This function uses a non-reentrant model
  2373 ;;
  2374                           
  2375                           	psect	text26
  2376   001A14                     __ptext26:
  2377                           	callstack 0
  2378   001A14                     _I2C_DO_SEND_RESTART_WRITE:
  2379                           	callstack 23
  2380   001A14                     
  2381                           ;mcc_generated_files/i2c_master.c: 458:     I2C_MasterEnableRestart();
  2382   001A14  EC28  F00D         	call	_I2C_MasterEnableRestart	;wreg free
  2383   001A18                     
  2384                           ;mcc_generated_files/i2c_master.c: 459:     return I2C_SEND_ADR_WRITE;
  2385   001A18  0E02               	movlw	2
  2386   001A1A  0012               	return		;funcret
  2387   001A1C                     __end_of_I2C_DO_SEND_RESTART_WRITE:
  2388                           	callstack 0
  2389                           
  2390 ;; *************** function _I2C_DO_SEND_RESTART_READ *****************
  2391 ;; Defined at:
  2392 ;;		line 450 in file "mcc_generated_files/i2c_master.c"
  2393 ;; Parameters:    Size  Location     Type
  2394 ;;		None
  2395 ;; Auto vars:     Size  Location     Type
  2396 ;;		None
  2397 ;; Return value:  Size  Location     Type
  2398 ;;                  1    wreg      enum E12586
  2399 ;; Registers used:
  2400 ;;		wreg, cstack
  2401 ;; Tracked objects:
  2402 ;;		On entry : 0/0
  2403 ;;		On exit  : 0/0
  2404 ;;		Unchanged: 0/0
  2405 ;; Data sizes:     COMRAM   BANK0   BANK1   BANK2   BANK3   BANK4   BANK5   BANK6   BANK7   BANK8   BANK9  BANK10  BANK1
      +1  BANK12  BANK13  BANK14
  2406 ;;      Params:         0       0       0       0       0       0       0       0       0       0       0       0       
      +0       0       0       0
  2407 ;;      Locals:         0       0       0       0       0       0       0       0       0       0       0       0       
      +0       0       0       0
  2408 ;;      Temps:          0       0       0       0       0       0       0       0       0       0       0       0       
      +0       0       0       0
  2409 ;;      Totals:         0       0       0       0       0       0       0       0       0       0       0       0       
      +0       0       0       0
  2410 ;;Total ram usage:        0 bytes
  2411 ;; Hardware stack levels used: 1
  2412 ;; Hardware stack levels required when called: 2
  2413 ;; This function calls:
  2414 ;;		_I2C_MasterEnableRestart
  2415 ;; This function is called by:
  2416 ;;		_I2C_DO_TX
  2417 ;;		_I2C_MasterFsm
  2418 ;; This function uses a non-reentrant model
  2419 ;;
  2420                           
  2421                           	psect	text27
  2422   001A1C                     __ptext27:
  2423                           	callstack 0
  2424   001A1C                     _I2C_DO_SEND_RESTART_READ:
  2425                           	callstack 23
  2426   001A1C                     
  2427                           ;mcc_generated_files/i2c_master.c: 452:     I2C_MasterEnableRestart();
  2428   001A1C  EC28  F00D         	call	_I2C_MasterEnableRestart	;wreg free
  2429   001A20                     
  2430                           ;mcc_generated_files/i2c_master.c: 453:     return I2C_SEND_ADR_READ;
  2431   001A20  0E01               	movlw	1
  2432   001A22  0012               	return		;funcret
  2433   001A24                     __end_of_I2C_DO_SEND_RESTART_READ:
  2434                           	callstack 0
  2435                           
  2436 ;; *************** function _I2C_DO_RCEN *****************
  2437 ;; Defined at:
  2438 ;;		line 402 in file "mcc_generated_files/i2c_master.c"
  2439 ;; Parameters:    Size  Location     Type
  2440 ;;		None
  2441 ;; Auto vars:     Size  Location     Type
  2442 ;;		None
  2443 ;; Return value:  Size  Location     Type
  2444 ;;                  1    wreg      enum E12586
  2445 ;; Registers used:
  2446 ;;		wreg, cstack
  2447 ;; Tracked objects:
  2448 ;;		On entry : 0/0
  2449 ;;		On exit  : 0/0
  2450 ;;		Unchanged: 0/0
  2451 ;; Data sizes:     COMRAM   BANK0   BANK1   BANK2   BANK3   BANK4   BANK5   BANK6   BANK7   BANK8   BANK9  BANK10  BANK1
      +1  BANK12  BANK13  BANK14
  2452 ;;      Params:         0       0       0       0       0       0       0       0       0       0       0       0       
      +0       0       0       0
  2453 ;;      Locals:         0       0       0       0       0       0       0       0       0       0       0       0       
      +0       0       0       0
  2454 ;;      Temps:          0       0       0       0       0       0       0       0       0       0       0       0       
      +0       0       0       0
  2455 ;;      Totals:         0       0       0       0       0       0       0       0       0       0       0       0       
      +0       0       0       0
  2456 ;;Total ram usage:        0 bytes
  2457 ;; Hardware stack levels used: 1
  2458 ;; Hardware stack levels required when called: 2
  2459 ;; This function calls:
  2460 ;;		_I2C_MasterStartRx
  2461 ;; This function is called by:
  2462 ;;		_I2C_MasterFsm
  2463 ;; This function uses a non-reentrant model
  2464 ;;
  2465                           
  2466                           	psect	text28
  2467   0019D8                     __ptext28:
  2468                           	callstack 0
  2469   0019D8                     _I2C_DO_RCEN:
  2470                           	callstack 24
  2471   0019D8                     
  2472                           ;mcc_generated_files/i2c_master.c: 404:     I2C_Status.addressNackCheck = 0;
  2473   0019D8  9024               	bcf	(_I2C_Status+35)^0,0,c
  2474   0019DA                     
  2475                           ;mcc_generated_files/i2c_master.c: 405:     I2C_MasterStartRx();
  2476   0019DA  EC20  F00D         	call	_I2C_MasterStartRx	;wreg free
  2477   0019DE                     
  2478                           ;mcc_generated_files/i2c_master.c: 406:     return I2C_RX;
  2479   0019DE  0E04               	movlw	4
  2480   0019E0  0012               	return		;funcret
  2481   0019E2                     __end_of_I2C_DO_RCEN:
  2482                           	callstack 0
  2483                           
  2484 ;; *************** function _I2C_DO_RX *****************
  2485 ;; Defined at:
  2486 ;;		line 378 in file "mcc_generated_files/i2c_master.c"
  2487 ;; Parameters:    Size  Location     Type
  2488 ;;		None
  2489 ;; Auto vars:     Size  Location     Type
  2490 ;;		None
  2491 ;; Return value:  Size  Location     Type
  2492 ;;                  1    wreg      enum E12586
  2493 ;; Registers used:
  2494 ;;		wreg, fsr2l, fsr2h, status,2, status,0, pcl, pclath, pclatu, tosl, prodl, prodh, cstack
  2495 ;; Tracked objects:
  2496 ;;		On entry : 0/0
  2497 ;;		On exit  : 0/0
  2498 ;;		Unchanged: 0/0
  2499 ;; Data sizes:     COMRAM   BANK0   BANK1   BANK2   BANK3   BANK4   BANK5   BANK6   BANK7   BANK8   BANK9  BANK10  BANK1
      +1  BANK12  BANK13  BANK14
  2500 ;;      Params:         0       0       0       0       0       0       0       0       0       0       0       0       
      +0       0       0       0
  2501 ;;      Locals:         0       0       0       0       0       0       0       0       0       0       0       0       
      +0       0       0       0
  2502 ;;      Temps:          2       0       0       0       0       0       0       0       0       0       0       0       
      +0       0       0       0
  2503 ;;      Totals:         2       0       0       0       0       0       0       0       0       0       0       0       
      +0       0       0       0
  2504 ;;Total ram usage:        2 bytes
  2505 ;; Hardware stack levels used: 1
  2506 ;; Hardware stack levels required when called: 4
  2507 ;; This function calls:
  2508 ;;		Absolute function
  2509 ;;		_I2C_CallbackReturnReset
  2510 ;;		_I2C_CallbackReturnStop
  2511 ;;		_I2C_DO_RX_NACK_RESTART
  2512 ;;		_I2C_DO_RX_NACK_STOP
  2513 ;;		_I2C_MasterGetRxData
  2514 ;;		_I2C_MasterSendAck
  2515 ;;		_rd1RegCompleteHandler
  2516 ;;		_rd1RegCompleteHandler@i2c_master_example$F145
  2517 ;;		_rd2RegCompleteHandler
  2518 ;;		_rd2RegCompleteHandler@i2c_master_example$F156
  2519 ;;		_rdBlkRegCompleteHandler
  2520 ;;		_rdBlkRegCompleteHandler@i2c_master_example$F179
  2521 ;;		_wr1RegCompleteHandler
  2522 ;;		_wr1RegCompleteHandler@i2c_master_example$F162
  2523 ;;		_wr2RegCompleteHandler
  2524 ;;		_wr2RegCompleteHandler@i2c_master_example$F168
  2525 ;; This function is called by:
  2526 ;;		_I2C_MasterFsm
  2527 ;; This function uses a non-reentrant model
  2528 ;;
  2529                           
  2530                           	psect	text29
  2531   00119E                     __ptext29:
  2532                           	callstack 0
  2533   00119E                     _I2C_DO_RX:
  2534                           	callstack 22
  2535   00119E                     
  2536                           ;mcc_generated_files/i2c_master.c: 380:     *I2C_Status.data_ptr++ = I2C_MasterGetRxData
      +                          ();
  2537   00119E  EC1E  F00D         	call	_I2C_MasterGetRxData	;wreg free
  2538   0011A2  C01E  FFD9         	movff	_I2C_Status+29,fsr2l
  2539   0011A6  C01F  FFDA         	movff	_I2C_Status+30,fsr2h
  2540   0011AA  6EDF               	movwf	indf2,c
  2541   0011AC  4A1E               	infsnz	(_I2C_Status+29)^0,f,c
  2542   0011AE  2A1F               	incf	(_I2C_Status+30)^0,f,c
  2543   0011B0                     
  2544                           ;mcc_generated_files/i2c_master.c: 381:     if(--I2C_Status.data_length)
  2545   0011B0  0620               	decf	(_I2C_Status+31)^0,f,c
  2546   0011B2  A0D8               	btfss	status,0,c
  2547   0011B4  0621               	decf	(_I2C_Status+32)^0,f,c
  2548   0011B6  5020               	movf	(_I2C_Status+31)^0,w,c
  2549   0011B8  1021               	iorwf	(_I2C_Status+32)^0,w,c
  2550   0011BA  B4D8               	btfsc	status,2,c
  2551   0011BC  EFE2  F008         	goto	u791
  2552   0011C0  EFE4  F008         	goto	u790
  2553   0011C4                     u791:
  2554   0011C4  EFE9  F008         	goto	l528
  2555   0011C8                     u790:
  2556   0011C8                     
  2557                           ;mcc_generated_files/i2c_master.c: 382:     {;mcc_generated_files/i2c_master.c: 383:    
      +                               I2C_MasterSendAck();
  2558   0011C8  EC16  F00D         	call	_I2C_MasterSendAck	;wreg free
  2559   0011CC                     
  2560                           ;mcc_generated_files/i2c_master.c: 384:         return I2C_RCEN;
  2561   0011CC  0E05               	movlw	5
  2562   0011CE  EF21  F009         	goto	l529
  2563   0011D2                     l528:
  2564                           
  2565                           ;mcc_generated_files/i2c_master.c: 387:     {;mcc_generated_files/i2c_master.c: 388:    
      +                               I2C_Status.bufferFree = 1;
  2566   0011D2  8624               	bsf	(_I2C_Status+35)^0,3,c
  2567                           
  2568                           ;mcc_generated_files/i2c_master.c: 389:         switch(I2C_Status.callbackTable[I2C_DATA
      +                          _COMPLETE](I2C_Status.callbackPayload[I2C_DATA_COMPLETE]))
  2569   0011D4  EFF4  F008         	goto	l2674
  2570   0011D8                     l2664:
  2571                           
  2572                           ;mcc_generated_files/i2c_master.c: 393:                 return I2C_DO_RX_NACK_RESTART();
  2573   0011D8  ECF6  F00C         	call	_I2C_DO_RX_NACK_RESTART	;wreg free
  2574   0011DC  EF21  F009         	goto	l529
  2575   0011E0                     l2668:
  2576                           
  2577                           ;mcc_generated_files/i2c_master.c: 397:                 return I2C_DO_RX_NACK_STOP();
  2578   0011E0  ECFA  F00C         	call	_I2C_DO_RX_NACK_STOP	;wreg free
  2579   0011E4  EF21  F009         	goto	l529
  2580   0011E8                     l2674:
  2581   0011E8  C00D  F038         	movff	_I2C_Status+12,I2C_CallbackReturnReset@funPtr
  2582   0011EC  C00E  F039         	movff	_I2C_Status+13,I2C_CallbackReturnReset@funPtr+1
  2583   0011F0  D802               	call	u808
  2584   0011F2  EF05  F009         	goto	u809
  2585   0011F6                     u808:
  2586   0011F6  0005               	push	
  2587   0011F8  6EFA               	movwf	pclath,c
  2588   0011FA  5001               	movf	_I2C_Status^0,w,c
  2589   0011FC  6EFD               	movwf	tosl,c
  2590   0011FE  5002               	movf	(_I2C_Status+1)^0,w,c
  2591   001200  6EFE               	movwf	tosh,c
  2592   001202  50F8               	movf	tblptru,w,c
  2593   001204  6EFF               	movwf	tosu,c
  2594   001206  50FA               	movf	pclath,w,c
  2595   001208  0012               	return		;indir
  2596   00120A                     u809:
  2597   00120A  6E3A               	movwf	??_I2C_DO_RX^0,c
  2598   00120C  6A3B               	clrf	(??_I2C_DO_RX+1)^0,c
  2599                           
  2600                           ; Switch on 2 bytes has been partitioned into a top level switch of size 1, and 1 sub-sw
      +                          itches
  2601                           ; Switch size 1, requested type "simple"
  2602                           ; Number of cases is 1, Range of values is 0 to 0
  2603                           ; switch strategies available:
  2604                           ; Name         Instructions Cycles
  2605                           ; simple_byte            4     3 (average)
  2606                           ;	Chosen strategy is simple_byte
  2607   00120E  503B               	movf	(??_I2C_DO_RX+1)^0,w,c
  2608   001210  0A00               	xorlw	0	; case 0
  2609   001212  B4D8               	btfsc	status,2,c
  2610   001214  EF0E  F009         	goto	l3174
  2611   001218  EFF0  F008         	goto	l2668
  2612   00121C                     l3174:
  2613                           
  2614                           ; Switch size 1, requested type "simple"
  2615                           ; Number of cases is 4, Range of values is 1 to 4
  2616                           ; switch strategies available:
  2617                           ; Name         Instructions Cycles
  2618                           ; simple_byte           13     7 (average)
  2619                           ;	Chosen strategy is simple_byte
  2620   00121C  503A               	movf	??_I2C_DO_RX^0,w,c
  2621   00121E  0A01               	xorlw	1	; case 1
  2622   001220  B4D8               	btfsc	status,2,c
  2623   001222  EFF0  F008         	goto	l2668
  2624   001226  0A03               	xorlw	3	; case 2
  2625   001228  B4D8               	btfsc	status,2,c
  2626   00122A  EFEC  F008         	goto	l2664
  2627   00122E  0A01               	xorlw	1	; case 3
  2628   001230  B4D8               	btfsc	status,2,c
  2629   001232  EFEC  F008         	goto	l2664
  2630   001236  0A07               	xorlw	7	; case 4
  2631   001238  B4D8               	btfsc	status,2,c
  2632   00123A  EFF0  F008         	goto	l2668
  2633   00123E  EFF0  F008         	goto	l2668
  2634   001242                     l529:
  2635   001242  0012               	return		;funcret
  2636   001244                     __end_of_I2C_DO_RX:
  2637                           	callstack 0
  2638                           
  2639 ;; *************** function _I2C_DO_TX *****************
  2640 ;; Defined at:
  2641 ;;		line 354 in file "mcc_generated_files/i2c_master.c"
  2642 ;; Parameters:    Size  Location     Type
  2643 ;;		None
  2644 ;; Auto vars:     Size  Location     Type
  2645 ;;		None
  2646 ;; Return value:  Size  Location     Type
  2647 ;;                  1    wreg      enum E12586
  2648 ;; Registers used:
  2649 ;;		wreg, fsr2l, fsr2h, status,2, status,0, pcl, pclath, pclatu, tosl, prodl, prodh, cstack
  2650 ;; Tracked objects:
  2651 ;;		On entry : 0/0
  2652 ;;		On exit  : 0/0
  2653 ;;		Unchanged: 0/0
  2654 ;; Data sizes:     COMRAM   BANK0   BANK1   BANK2   BANK3   BANK4   BANK5   BANK6   BANK7   BANK8   BANK9  BANK10  BANK1
      +1  BANK12  BANK13  BANK14
  2655 ;;      Params:         0       0       0       0       0       0       0       0       0       0       0       0       
      +0       0       0       0
  2656 ;;      Locals:         0       0       0       0       0       0       0       0       0       0       0       0       
      +0       0       0       0
  2657 ;;      Temps:          2       0       0       0       0       0       0       0       0       0       0       0       
      +0       0       0       0
  2658 ;;      Totals:         2       0       0       0       0       0       0       0       0       0       0       0       
      +0       0       0       0
  2659 ;;Total ram usage:        2 bytes
  2660 ;; Hardware stack levels used: 1
  2661 ;; Hardware stack levels required when called: 4
  2662 ;; This function calls:
  2663 ;;		Absolute function
  2664 ;;		_I2C_CallbackReturnReset
  2665 ;;		_I2C_CallbackReturnStop
  2666 ;;		_I2C_DO_SEND_RESTART_READ
  2667 ;;		_I2C_DO_SEND_RESTART_WRITE
  2668 ;;		_I2C_DO_SEND_STOP
  2669 ;;		_I2C_MasterIsNack
  2670 ;;		_I2C_MasterSendTxData
  2671 ;;		_rd1RegCompleteHandler
  2672 ;;		_rd1RegCompleteHandler@i2c_master_example$F145
  2673 ;;		_rd2RegCompleteHandler
  2674 ;;		_rd2RegCompleteHandler@i2c_master_example$F156
  2675 ;;		_rdBlkRegCompleteHandler
  2676 ;;		_rdBlkRegCompleteHandler@i2c_master_example$F179
  2677 ;;		_wr1RegCompleteHandler
  2678 ;;		_wr1RegCompleteHandler@i2c_master_example$F162
  2679 ;;		_wr2RegCompleteHandler
  2680 ;;		_wr2RegCompleteHandler@i2c_master_example$F168
  2681 ;; This function is called by:
  2682 ;;		_I2C_MasterFsm
  2683 ;; This function uses a non-reentrant model
  2684 ;;
  2685                           
  2686                           	psect	text30
  2687   001022                     __ptext30:
  2688                           	callstack 0
  2689   001022                     _I2C_DO_TX:
  2690                           	callstack 22
  2691   001022                     
  2692                           ;mcc_generated_files/i2c_master.c: 356:     if(I2C_MasterIsNack())
  2693   001022  ECA1  F00C         	call	_I2C_MasterIsNack	;wreg free
  2694   001026  0900               	iorlw	0
  2695   001028  B4D8               	btfsc	status,2,c
  2696   00102A  EF19  F008         	goto	u761
  2697   00102E  EF1B  F008         	goto	u760
  2698   001032                     u761:
  2699   001032  EF58  F008         	goto	l512
  2700   001036                     u760:
  2701   001036  EF29  F008         	goto	l2634
  2702   00103A                     l2620:
  2703                           
  2704                           ;mcc_generated_files/i2c_master.c: 361:                 return I2C_DO_SEND_RESTART_READ(
      +                          );
  2705   00103A  EC0E  F00D         	call	_I2C_DO_SEND_RESTART_READ	;wreg free
  2706   00103E  EF72  F008         	goto	l515
  2707   001042                     l2624:
  2708                           
  2709                           ;mcc_generated_files/i2c_master.c: 363:                   return I2C_DO_SEND_RESTART_WRI
      +                          TE();
  2710   001042  EC0A  F00D         	call	_I2C_DO_SEND_RESTART_WRITE	;wreg free
  2711   001046  EF72  F008         	goto	l515
  2712   00104A                     l2628:
  2713                           
  2714                           ;mcc_generated_files/i2c_master.c: 367:                 return I2C_DO_SEND_STOP();
  2715   00104A  EC02  F00D         	call	_I2C_DO_SEND_STOP	;wreg free
  2716   00104E  EF72  F008         	goto	l515
  2717   001052                     l2634:
  2718   001052  C013  F038         	movff	_I2C_Status+18,I2C_CallbackReturnReset@funPtr
  2719   001056  C014  F039         	movff	_I2C_Status+19,I2C_CallbackReturnReset@funPtr+1
  2720   00105A  EE20  F007         	lfsr	2,_I2C_Status+6
  2721   00105E  D802               	call	u778
  2722   001060  EF3C  F008         	goto	u779
  2723   001064                     u778:
  2724   001064  0005               	push	
  2725   001066  6EFA               	movwf	pclath,c
  2726   001068  50DE               	movf	postinc2,w,c
  2727   00106A  6EFD               	movwf	tosl,c
  2728   00106C  50DE               	movf	postinc2,w,c
  2729   00106E  6EFE               	movwf	tosh,c
  2730   001070  50F8               	movf	tblptru,w,c
  2731   001072  6EFF               	movwf	tosu,c
  2732   001074  50FA               	movf	pclath,w,c
  2733   001076  0012               	return		;indir
  2734   001078                     u779:
  2735   001078  6E3A               	movwf	??_I2C_DO_TX^0,c
  2736   00107A  6A3B               	clrf	(??_I2C_DO_TX+1)^0,c
  2737                           
  2738                           ; Switch on 2 bytes has been partitioned into a top level switch of size 1, and 1 sub-sw
      +                          itches
  2739                           ; Switch size 1, requested type "simple"
  2740                           ; Number of cases is 1, Range of values is 0 to 0
  2741                           ; switch strategies available:
  2742                           ; Name         Instructions Cycles
  2743                           ; simple_byte            4     3 (average)
  2744                           ;	Chosen strategy is simple_byte
  2745   00107C  503B               	movf	(??_I2C_DO_TX+1)^0,w,c
  2746   00107E  0A00               	xorlw	0	; case 0
  2747   001080  B4D8               	btfsc	status,2,c
  2748   001082  EF45  F008         	goto	l3176
  2749   001086  EF25  F008         	goto	l2628
  2750   00108A                     l3176:
  2751                           
  2752                           ; Switch size 1, requested type "simple"
  2753                           ; Number of cases is 4, Range of values is 1 to 4
  2754                           ; switch strategies available:
  2755                           ; Name         Instructions Cycles
  2756                           ; simple_byte           13     7 (average)
  2757                           ;	Chosen strategy is simple_byte
  2758   00108A  503A               	movf	??_I2C_DO_TX^0,w,c
  2759   00108C  0A01               	xorlw	1	; case 1
  2760   00108E  B4D8               	btfsc	status,2,c
  2761   001090  EF25  F008         	goto	l2628
  2762   001094  0A03               	xorlw	3	; case 2
  2763   001096  B4D8               	btfsc	status,2,c
  2764   001098  EF1D  F008         	goto	l2620
  2765   00109C  0A01               	xorlw	1	; case 3
  2766   00109E  B4D8               	btfsc	status,2,c
  2767   0010A0  EF21  F008         	goto	l2624
  2768   0010A4  0A07               	xorlw	7	; case 4
  2769   0010A6  B4D8               	btfsc	status,2,c
  2770   0010A8  EF25  F008         	goto	l2628
  2771   0010AC  EF25  F008         	goto	l2628
  2772   0010B0                     l512:
  2773                           
  2774                           ;mcc_generated_files/i2c_master.c: 371:     {;mcc_generated_files/i2c_master.c: 372:    
      +                               I2C_Status.addressNackCheck = 0;
  2775   0010B0  9024               	bcf	(_I2C_Status+35)^0,0,c
  2776   0010B2                     
  2777                           ;mcc_generated_files/i2c_master.c: 373:         I2C_MasterSendTxData(*I2C_Status.data_pt
      +                          r++);
  2778   0010B2  C01E  FFD9         	movff	_I2C_Status+29,fsr2l
  2779   0010B6  C01F  FFDA         	movff	_I2C_Status+30,fsr2h
  2780   0010BA  4A1E               	infsnz	(_I2C_Status+29)^0,f,c
  2781   0010BC  2A1F               	incf	(_I2C_Status+30)^0,f,c
  2782   0010BE  50DF               	movf	indf2,w,c
  2783   0010C0  EC12  F00D         	call	_I2C_MasterSendTxData
  2784   0010C4                     
  2785                           ;mcc_generated_files/i2c_master.c: 374:         return (--I2C_Status.data_length)?I2C_TX
      +                          :I2C_TX_EMPTY;
  2786   0010C4  0620               	decf	(_I2C_Status+31)^0,f,c
  2787   0010C6  A0D8               	btfss	status,0,c
  2788   0010C8  0621               	decf	(_I2C_Status+32)^0,f,c
  2789   0010CA  5020               	movf	(_I2C_Status+31)^0,w,c
  2790   0010CC  1021               	iorwf	(_I2C_Status+32)^0,w,c
  2791   0010CE  A4D8               	btfss	status,2,c
  2792   0010D0  EF6C  F008         	goto	u781
  2793   0010D4  EF6E  F008         	goto	u780
  2794   0010D8                     u781:
  2795   0010D8  EF71  F008         	goto	l2642
  2796   0010DC                     u780:
  2797   0010DC  0E06               	movlw	6
  2798   0010DE  EF72  F008         	goto	l515
  2799   0010E2                     l2642:
  2800   0010E2  0E03               	movlw	3
  2801   0010E4                     l515:
  2802   0010E4  0012               	return		;funcret
  2803   0010E6                     __end_of_I2C_DO_TX:
  2804                           	callstack 0
  2805                           
  2806 ;; *************** function _I2C_DO_SEND_ADR_WRITE *****************
  2807 ;; Defined at:
  2808 ;;		line 347 in file "mcc_generated_files/i2c_master.c"
  2809 ;; Parameters:    Size  Location     Type
  2810 ;;		None
  2811 ;; Auto vars:     Size  Location     Type
  2812 ;;		None
  2813 ;; Return value:  Size  Location     Type
  2814 ;;                  1    wreg      enum E12586
  2815 ;; Registers used:
  2816 ;;		wreg, status,2, status,0, cstack
  2817 ;; Tracked objects:
  2818 ;;		On entry : 0/0
  2819 ;;		On exit  : 0/0
  2820 ;;		Unchanged: 0/0
  2821 ;; Data sizes:     COMRAM   BANK0   BANK1   BANK2   BANK3   BANK4   BANK5   BANK6   BANK7   BANK8   BANK9  BANK10  BANK1
      +1  BANK12  BANK13  BANK14
  2822 ;;      Params:         0       0       0       0       0       0       0       0       0       0       0       0       
      +0       0       0       0
  2823 ;;      Locals:         0       0       0       0       0       0       0       0       0       0       0       0       
      +0       0       0       0
  2824 ;;      Temps:          0       0       0       0       0       0       0       0       0       0       0       0       
      +0       0       0       0
  2825 ;;      Totals:         0       0       0       0       0       0       0       0       0       0       0       0       
      +0       0       0       0
  2826 ;;Total ram usage:        0 bytes
  2827 ;; Hardware stack levels used: 1
  2828 ;; Hardware stack levels required when called: 2
  2829 ;; This function calls:
  2830 ;;		_I2C_MasterSendTxData
  2831 ;; This function is called by:
  2832 ;;		_I2C_MasterFsm
  2833 ;; This function uses a non-reentrant model
  2834 ;;
  2835                           
  2836                           	psect	text31
  2837   001994                     __ptext31:
  2838                           	callstack 0
  2839   001994                     _I2C_DO_SEND_ADR_WRITE:
  2840                           	callstack 24
  2841   001994                     
  2842                           ;mcc_generated_files/i2c_master.c: 349:     I2C_Status.addressNackCheck = 1;
  2843   001994  8024               	bsf	(_I2C_Status+35)^0,0,c
  2844   001996                     
  2845                           ;mcc_generated_files/i2c_master.c: 350:     I2C_MasterSendTxData((uint8_t) (I2C_Status.a
      +                          ddress << 1));
  2846   001996  501D               	movf	(_I2C_Status+28)^0,w,c
  2847   001998  241D               	addwf	(_I2C_Status+28)^0,w,c
  2848   00199A  EC12  F00D         	call	_I2C_MasterSendTxData
  2849   00199E                     
  2850                           ;mcc_generated_files/i2c_master.c: 351:     return I2C_TX;
  2851   00199E  0E03               	movlw	3
  2852   0019A0  0012               	return		;funcret
  2853   0019A2                     __end_of_I2C_DO_SEND_ADR_WRITE:
  2854                           	callstack 0
  2855                           
  2856 ;; *************** function _I2C_DO_SEND_ADR_READ *****************
  2857 ;; Defined at:
  2858 ;;		line 340 in file "mcc_generated_files/i2c_master.c"
  2859 ;; Parameters:    Size  Location     Type
  2860 ;;		None
  2861 ;; Auto vars:     Size  Location     Type
  2862 ;;		None
  2863 ;; Return value:  Size  Location     Type
  2864 ;;                  1    wreg      enum E12586
  2865 ;; Registers used:
  2866 ;;		wreg, status,0, cstack
  2867 ;; Tracked objects:
  2868 ;;		On entry : 0/0
  2869 ;;		On exit  : 0/0
  2870 ;;		Unchanged: 0/0
  2871 ;; Data sizes:     COMRAM   BANK0   BANK1   BANK2   BANK3   BANK4   BANK5   BANK6   BANK7   BANK8   BANK9  BANK10  BANK1
      +1  BANK12  BANK13  BANK14
  2872 ;;      Params:         0       0       0       0       0       0       0       0       0       0       0       0       
      +0       0       0       0
  2873 ;;      Locals:         0       0       0       0       0       0       0       0       0       0       0       0       
      +0       0       0       0
  2874 ;;      Temps:          0       0       0       0       0       0       0       0       0       0       0       0       
      +0       0       0       0
  2875 ;;      Totals:         0       0       0       0       0       0       0       0       0       0       0       0       
      +0       0       0       0
  2876 ;;Total ram usage:        0 bytes
  2877 ;; Hardware stack levels used: 1
  2878 ;; Hardware stack levels required when called: 2
  2879 ;; This function calls:
  2880 ;;		_I2C_MasterSendTxData
  2881 ;; This function is called by:
  2882 ;;		_I2C_MasterFsm
  2883 ;; This function uses a non-reentrant model
  2884 ;;
  2885                           
  2886                           	psect	text32
  2887   0019A2                     __ptext32:
  2888                           	callstack 0
  2889   0019A2                     _I2C_DO_SEND_ADR_READ:
  2890                           	callstack 24
  2891   0019A2                     
  2892                           ;mcc_generated_files/i2c_master.c: 342:     I2C_Status.addressNackCheck = 1;
  2893   0019A2  8024               	bsf	(_I2C_Status+35)^0,0,c
  2894   0019A4                     
  2895                           ;mcc_generated_files/i2c_master.c: 343:     I2C_MasterSendTxData((uint8_t) (I2C_Status.a
      +                          ddress << 1 | 1));
  2896   0019A4  80D8               	bsf	status,0,c
  2897   0019A6  341D               	rlcf	(_I2C_Status+28)^0,w,c
  2898   0019A8  EC12  F00D         	call	_I2C_MasterSendTxData
  2899   0019AC                     
  2900                           ;mcc_generated_files/i2c_master.c: 344:     return I2C_RCEN;
  2901   0019AC  0E05               	movlw	5
  2902   0019AE  0012               	return		;funcret
  2903   0019B0                     __end_of_I2C_DO_SEND_ADR_READ:
  2904                           	callstack 0
  2905                           
  2906 ;; *************** function _I2C_DO_IDLE *****************
  2907 ;; Defined at:
  2908 ;;		line 333 in file "mcc_generated_files/i2c_master.c"
  2909 ;; Parameters:    Size  Location     Type
  2910 ;;		None
  2911 ;; Auto vars:     Size  Location     Type
  2912 ;;		None
  2913 ;; Return value:  Size  Location     Type
  2914 ;;                  1    wreg      enum E12586
  2915 ;; Registers used:
  2916 ;;		wreg, status,2
  2917 ;; Tracked objects:
  2918 ;;		On entry : 0/0
  2919 ;;		On exit  : 0/0
  2920 ;;		Unchanged: 0/0
  2921 ;; Data sizes:     COMRAM   BANK0   BANK1   BANK2   BANK3   BANK4   BANK5   BANK6   BANK7   BANK8   BANK9  BANK10  BANK1
      +1  BANK12  BANK13  BANK14
  2922 ;;      Params:         0       0       0       0       0       0       0       0       0       0       0       0       
      +0       0       0       0
  2923 ;;      Locals:         0       0       0       0       0       0       0       0       0       0       0       0       
      +0       0       0       0
  2924 ;;      Temps:          0       0       0       0       0       0       0       0       0       0       0       0       
      +0       0       0       0
  2925 ;;      Totals:         0       0       0       0       0       0       0       0       0       0       0       0       
      +0       0       0       0
  2926 ;;Total ram usage:        0 bytes
  2927 ;; Hardware stack levels used: 1
  2928 ;; Hardware stack levels required when called: 1
  2929 ;; This function calls:
  2930 ;;		Nothing
  2931 ;; This function is called by:
  2932 ;;		_I2C_MasterFsm
  2933 ;; This function uses a non-reentrant model
  2934 ;;
  2935                           
  2936                           	psect	text33
  2937   0019E2                     __ptext33:
  2938                           	callstack 0
  2939   0019E2                     _I2C_DO_IDLE:
  2940                           	callstack 25
  2941   0019E2                     
  2942                           ;mcc_generated_files/i2c_master.c: 335:     I2C_Status.busy = 0;
  2943   0019E2  9224               	bcf	(_I2C_Status+35)^0,1,c
  2944   0019E4                     
  2945                           ;mcc_generated_files/i2c_master.c: 336:     I2C_Status.error = I2C_NOERR;
  2946   0019E4  0E00               	movlw	0
  2947   0019E6  6E23               	movwf	(_I2C_Status+34)^0,c
  2948   0019E8                     
  2949                           ;mcc_generated_files/i2c_master.c: 337:     return I2C_RESET;
  2950   0019E8  0E0E               	movlw	14
  2951   0019EA  0012               	return		;funcret
  2952   0019EC                     __end_of_I2C_DO_IDLE:
  2953                           	callstack 0
  2954                           
  2955 ;; *************** function _I2C_DO_TX_EMPTY *****************
  2956 ;; Defined at:
  2957 ;;		line 409 in file "mcc_generated_files/i2c_master.c"
  2958 ;; Parameters:    Size  Location     Type
  2959 ;;		None
  2960 ;; Auto vars:     Size  Location     Type
  2961 ;;		None
  2962 ;; Return value:  Size  Location     Type
  2963 ;;                  1    wreg      enum E12586
  2964 ;; Registers used:
  2965 ;;		wreg, fsr2l, fsr2h, status,2, status,0, pcl, pclath, pclatu, tosl, prodl, prodh, cstack
  2966 ;; Tracked objects:
  2967 ;;		On entry : 0/0
  2968 ;;		On exit  : 0/0
  2969 ;;		Unchanged: 0/0
  2970 ;; Data sizes:     COMRAM   BANK0   BANK1   BANK2   BANK3   BANK4   BANK5   BANK6   BANK7   BANK8   BANK9  BANK10  BANK1
      +1  BANK12  BANK13  BANK14
  2971 ;;      Params:         0       0       0       0       0       0       0       0       0       0       0       0       
      +0       0       0       0
  2972 ;;      Locals:         0       0       0       0       0       0       0       0       0       0       0       0       
      +0       0       0       0
  2973 ;;      Temps:          2       0       0       0       0       0       0       0       0       0       0       0       
      +0       0       0       0
  2974 ;;      Totals:         2       0       0       0       0       0       0       0       0       0       0       0       
      +0       0       0       0
  2975 ;;Total ram usage:        2 bytes
  2976 ;; Hardware stack levels used: 1
  2977 ;; Hardware stack levels required when called: 4
  2978 ;; This function calls:
  2979 ;;		Absolute function
  2980 ;;		_I2C_CallbackReturnReset
  2981 ;;		_I2C_CallbackReturnStop
  2982 ;;		_I2C_DO_SEND_RESTART
  2983 ;;		_I2C_DO_SEND_STOP
  2984 ;;		_I2C_MasterSetIrq
  2985 ;;		_rd1RegCompleteHandler
  2986 ;;		_rd1RegCompleteHandler@i2c_master_example$F145
  2987 ;;		_rd2RegCompleteHandler
  2988 ;;		_rd2RegCompleteHandler@i2c_master_example$F156
  2989 ;;		_rdBlkRegCompleteHandler
  2990 ;;		_rdBlkRegCompleteHandler@i2c_master_example$F179
  2991 ;;		_wr1RegCompleteHandler
  2992 ;;		_wr1RegCompleteHandler@i2c_master_example$F162
  2993 ;;		_wr2RegCompleteHandler
  2994 ;;		_wr2RegCompleteHandler@i2c_master_example$F168
  2995 ;; This function is called by:
  2996 ;;		_I2C_MasterFsm
  2997 ;; This function uses a non-reentrant model
  2998 ;;
  2999                           
  3000                           	psect	text34
  3001   0012D0                     __ptext34:
  3002                           	callstack 0
  3003   0012D0                     _I2C_DO_TX_EMPTY:
  3004                           	callstack 22
  3005   0012D0                     
  3006                           ;mcc_generated_files/i2c_master.c: 411:     I2C_Status.bufferFree = 1;
  3007   0012D0  8624               	bsf	(_I2C_Status+35)^0,3,c
  3008                           
  3009                           ;mcc_generated_files/i2c_master.c: 412:     switch(I2C_Status.callbackTable[I2C_DATA_COM
      +                          PLETE](I2C_Status.callbackPayload[I2C_DATA_COMPLETE]))
  3010   0012D2  EF78  F009         	goto	l2698
  3011   0012D6                     l2682:
  3012                           
  3013                           ;mcc_generated_files/i2c_master.c: 416:             return I2C_DO_SEND_RESTART();
  3014   0012D6  EC06  F00D         	call	_I2C_DO_SEND_RESTART	;wreg free
  3015   0012DA  EFA5  F009         	goto	l546
  3016   0012DE                     l2686:
  3017                           
  3018                           ;mcc_generated_files/i2c_master.c: 418:             I2C_MasterSetIrq();
  3019   0012DE  EC1C  F00D         	call	_I2C_MasterSetIrq	;wreg free
  3020   0012E2                     
  3021                           ;mcc_generated_files/i2c_master.c: 419:             return I2C_TX;
  3022   0012E2  0E03               	movlw	3
  3023   0012E4  EFA5  F009         	goto	l546
  3024   0012E8                     l2692:
  3025                           
  3026                           ;mcc_generated_files/i2c_master.c: 422:             return I2C_DO_SEND_STOP();
  3027   0012E8  EC02  F00D         	call	_I2C_DO_SEND_STOP	;wreg free
  3028   0012EC  EFA5  F009         	goto	l546
  3029   0012F0                     l2698:
  3030   0012F0  C00D  F038         	movff	_I2C_Status+12,I2C_CallbackReturnReset@funPtr
  3031   0012F4  C00E  F039         	movff	_I2C_Status+13,I2C_CallbackReturnReset@funPtr+1
  3032   0012F8  D802               	call	u818
  3033   0012FA  EF89  F009         	goto	u819
  3034   0012FE                     u818:
  3035   0012FE  0005               	push	
  3036   001300  6EFA               	movwf	pclath,c
  3037   001302  5001               	movf	_I2C_Status^0,w,c
  3038   001304  6EFD               	movwf	tosl,c
  3039   001306  5002               	movf	(_I2C_Status+1)^0,w,c
  3040   001308  6EFE               	movwf	tosh,c
  3041   00130A  50F8               	movf	tblptru,w,c
  3042   00130C  6EFF               	movwf	tosu,c
  3043   00130E  50FA               	movf	pclath,w,c
  3044   001310  0012               	return		;indir
  3045   001312                     u819:
  3046   001312  6E3A               	movwf	??_I2C_DO_TX_EMPTY^0,c
  3047   001314  6A3B               	clrf	(??_I2C_DO_TX_EMPTY+1)^0,c
  3048                           
  3049                           ; Switch on 2 bytes has been partitioned into a top level switch of size 1, and 1 sub-sw
      +                          itches
  3050                           ; Switch size 1, requested type "simple"
  3051                           ; Number of cases is 1, Range of values is 0 to 0
  3052                           ; switch strategies available:
  3053                           ; Name         Instructions Cycles
  3054                           ; simple_byte            4     3 (average)
  3055                           ;	Chosen strategy is simple_byte
  3056   001316  503B               	movf	(??_I2C_DO_TX_EMPTY+1)^0,w,c
  3057   001318  0A00               	xorlw	0	; case 0
  3058   00131A  B4D8               	btfsc	status,2,c
  3059   00131C  EF92  F009         	goto	l3178
  3060   001320  EF74  F009         	goto	l2692
  3061   001324                     l3178:
  3062                           
  3063                           ; Switch size 1, requested type "simple"
  3064                           ; Number of cases is 4, Range of values is 1 to 4
  3065                           ; switch strategies available:
  3066                           ; Name         Instructions Cycles
  3067                           ; simple_byte           13     7 (average)
  3068                           ;	Chosen strategy is simple_byte
  3069   001324  503A               	movf	??_I2C_DO_TX_EMPTY^0,w,c
  3070   001326  0A01               	xorlw	1	; case 1
  3071   001328  B4D8               	btfsc	status,2,c
  3072   00132A  EF74  F009         	goto	l2692
  3073   00132E  0A03               	xorlw	3	; case 2
  3074   001330  B4D8               	btfsc	status,2,c
  3075   001332  EF6B  F009         	goto	l2682
  3076   001336  0A01               	xorlw	1	; case 3
  3077   001338  B4D8               	btfsc	status,2,c
  3078   00133A  EF6B  F009         	goto	l2682
  3079   00133E  0A07               	xorlw	7	; case 4
  3080   001340  B4D8               	btfsc	status,2,c
  3081   001342  EF6F  F009         	goto	l2686
  3082   001346  EF74  F009         	goto	l2692
  3083   00134A                     l546:
  3084   00134A  0012               	return		;funcret
  3085   00134C                     __end_of_I2C_DO_TX_EMPTY:
  3086                           	callstack 0
  3087                           
  3088 ;; *************** function _I2C_MasterSetIrq *****************
  3089 ;; Defined at:
  3090 ;;		line 645 in file "mcc_generated_files/i2c_master.c"
  3091 ;; Parameters:    Size  Location     Type
  3092 ;;		None
  3093 ;; Auto vars:     Size  Location     Type
  3094 ;;		None
  3095 ;; Return value:  Size  Location     Type
  3096 ;;                  1    wreg      void 
  3097 ;; Registers used:
  3098 ;;		None
  3099 ;; Tracked objects:
  3100 ;;		On entry : 0/0
  3101 ;;		On exit  : 0/0
  3102 ;;		Unchanged: 0/0
  3103 ;; Data sizes:     COMRAM   BANK0   BANK1   BANK2   BANK3   BANK4   BANK5   BANK6   BANK7   BANK8   BANK9  BANK10  BANK1
      +1  BANK12  BANK13  BANK14
  3104 ;;      Params:         0       0       0       0       0       0       0       0       0       0       0       0       
      +0       0       0       0
  3105 ;;      Locals:         0       0       0       0       0       0       0       0       0       0       0       0       
      +0       0       0       0
  3106 ;;      Temps:          0       0       0       0       0       0       0       0       0       0       0       0       
      +0       0       0       0
  3107 ;;      Totals:         0       0       0       0       0       0       0       0       0       0       0       0       
      +0       0       0       0
  3108 ;;Total ram usage:        0 bytes
  3109 ;; Hardware stack levels used: 1
  3110 ;; Hardware stack levels required when called: 1
  3111 ;; This function calls:
  3112 ;;		Nothing
  3113 ;; This function is called by:
  3114 ;;		_I2C_DO_TX_EMPTY
  3115 ;; This function uses a non-reentrant model
  3116 ;;
  3117                           
  3118                           	psect	text35
  3119   001A38                     __ptext35:
  3120                           	callstack 0
  3121   001A38                     _I2C_MasterSetIrq:
  3122                           	callstack 24
  3123   001A38                     
  3124                           ;mcc_generated_files/i2c_master.c: 647:     PIR1bits.SSPIF = 1;
  3125   001A38  869E               	bsf	158,3,c	;volatile
  3126   001A3A  0012               	return		;funcret
  3127   001A3C                     __end_of_I2C_MasterSetIrq:
  3128                           	callstack 0
  3129                           
  3130 ;; *************** function _I2C_MasterIsNack *****************
  3131 ;; Defined at:
  3132 ;;		line 598 in file "mcc_generated_files/i2c_master.c"
  3133 ;; Parameters:    Size  Location     Type
  3134 ;;		None
  3135 ;; Auto vars:     Size  Location     Type
  3136 ;;		None
  3137 ;; Return value:  Size  Location     Type
  3138 ;;                  1    wreg      _Bool 
  3139 ;; Registers used:
  3140 ;;		wreg
  3141 ;; Tracked objects:
  3142 ;;		On entry : 0/0
  3143 ;;		On exit  : 0/0
  3144 ;;		Unchanged: 0/0
  3145 ;; Data sizes:     COMRAM   BANK0   BANK1   BANK2   BANK3   BANK4   BANK5   BANK6   BANK7   BANK8   BANK9  BANK10  BANK1
      +1  BANK12  BANK13  BANK14
  3146 ;;      Params:         0       0       0       0       0       0       0       0       0       0       0       0       
      +0       0       0       0
  3147 ;;      Locals:         0       0       0       0       0       0       0       0       0       0       0       0       
      +0       0       0       0
  3148 ;;      Temps:          0       0       0       0       0       0       0       0       0       0       0       0       
      +0       0       0       0
  3149 ;;      Totals:         0       0       0       0       0       0       0       0       0       0       0       0       
      +0       0       0       0
  3150 ;;Total ram usage:        0 bytes
  3151 ;; Hardware stack levels used: 1
  3152 ;; Hardware stack levels required when called: 1
  3153 ;; This function calls:
  3154 ;;		Nothing
  3155 ;; This function is called by:
  3156 ;;		_I2C_MasterFsm
  3157 ;;		_I2C_DO_TX
  3158 ;; This function uses a non-reentrant model
  3159 ;;
  3160                           
  3161                           	psect	text36
  3162   001942                     __ptext36:
  3163                           	callstack 0
  3164   001942                     _I2C_MasterIsNack:
  3165                           	callstack 25
  3166   001942                     
  3167                           ;mcc_generated_files/i2c_master.c: 600:     return SSPCON2bits.ACKSTAT;
  3168   001942  BCC5               	btfsc	197,6,c	;volatile
  3169   001944  EFA6  F00C         	goto	u31
  3170   001948  EFA9  F00C         	goto	u30
  3171   00194C                     u31:
  3172   00194C  0E01               	movlw	1
  3173   00194E  EFAA  F00C         	goto	u36
  3174   001952                     u30:
  3175   001952  0E00               	movlw	0
  3176   001954                     u36:
  3177   001954  0012               	return		;funcret
  3178   001956                     __end_of_I2C_MasterIsNack:
  3179                           	callstack 0
  3180                           
  3181 ;; *************** function _I2C_MasterSendTxData *****************
  3182 ;; Defined at:
  3183 ;;		line 568 in file "mcc_generated_files/i2c_master.c"
  3184 ;; Parameters:    Size  Location     Type
  3185 ;;  data            1    wreg     unsigned char 
  3186 ;; Auto vars:     Size  Location     Type
  3187 ;;  data            1    0[COMRAM] unsigned char 
  3188 ;; Return value:  Size  Location     Type
  3189 ;;                  1    wreg      void 
  3190 ;; Registers used:
  3191 ;;		wreg
  3192 ;; Tracked objects:
  3193 ;;		On entry : 0/0
  3194 ;;		On exit  : 0/0
  3195 ;;		Unchanged: 0/0
  3196 ;; Data sizes:     COMRAM   BANK0   BANK1   BANK2   BANK3   BANK4   BANK5   BANK6   BANK7   BANK8   BANK9  BANK10  BANK1
      +1  BANK12  BANK13  BANK14
  3197 ;;      Params:         0       0       0       0       0       0       0       0       0       0       0       0       
      +0       0       0       0
  3198 ;;      Locals:         1       0       0       0       0       0       0       0       0       0       0       0       
      +0       0       0       0
  3199 ;;      Temps:          0       0       0       0       0       0       0       0       0       0       0       0       
      +0       0       0       0
  3200 ;;      Totals:         1       0       0       0       0       0       0       0       0       0       0       0       
      +0       0       0       0
  3201 ;;Total ram usage:        1 bytes
  3202 ;; Hardware stack levels used: 1
  3203 ;; Hardware stack levels required when called: 1
  3204 ;; This function calls:
  3205 ;;		Nothing
  3206 ;; This function is called by:
  3207 ;;		_I2C_DO_SEND_ADR_READ
  3208 ;;		_I2C_DO_SEND_ADR_WRITE
  3209 ;;		_I2C_DO_TX
  3210 ;; This function uses a non-reentrant model
  3211 ;;
  3212                           
  3213                           	psect	text37
  3214   001A24                     __ptext37:
  3215                           	callstack 0
  3216   001A24                     _I2C_MasterSendTxData:
  3217                           	callstack 24
  3218                           
  3219                           ;incstack = 0
  3220                           ;I2C_MasterSendTxData@data stored from wreg
  3221   001A24  6E2F               	movwf	I2C_MasterSendTxData@data^0,c
  3222   001A26                     
  3223                           ;mcc_generated_files/i2c_master.c: 568: static __attribute__((inline)) void I2C_MasterSe
      +                          ndTxData(uint8_t data);mcc_generated_files/i2c_master.c: 569: {;mcc_generated_files/i2c_
      +                          master.c: 570:     SSPBUF = data;
  3224   001A26  C02F  FFC9         	movff	I2C_MasterSendTxData@data,4041	;volatile
  3225   001A2A  0012               	return		;funcret
  3226   001A2C                     __end_of_I2C_MasterSendTxData:
  3227                           	callstack 0
  3228                           
  3229 ;; *************** function _I2C_MasterSendAck *****************
  3230 ;; Defined at:
  3231 ;;		line 603 in file "mcc_generated_files/i2c_master.c"
  3232 ;; Parameters:    Size  Location     Type
  3233 ;;		None
  3234 ;; Auto vars:     Size  Location     Type
  3235 ;;		None
  3236 ;; Return value:  Size  Location     Type
  3237 ;;                  1    wreg      void 
  3238 ;; Registers used:
  3239 ;;		None
  3240 ;; Tracked objects:
  3241 ;;		On entry : 0/0
  3242 ;;		On exit  : 0/0
  3243 ;;		Unchanged: 0/0
  3244 ;; Data sizes:     COMRAM   BANK0   BANK1   BANK2   BANK3   BANK4   BANK5   BANK6   BANK7   BANK8   BANK9  BANK10  BANK1
      +1  BANK12  BANK13  BANK14
  3245 ;;      Params:         0       0       0       0       0       0       0       0       0       0       0       0       
      +0       0       0       0
  3246 ;;      Locals:         0       0       0       0       0       0       0       0       0       0       0       0       
      +0       0       0       0
  3247 ;;      Temps:          0       0       0       0       0       0       0       0       0       0       0       0       
      +0       0       0       0
  3248 ;;      Totals:         0       0       0       0       0       0       0       0       0       0       0       0       
      +0       0       0       0
  3249 ;;Total ram usage:        0 bytes
  3250 ;; Hardware stack levels used: 1
  3251 ;; Hardware stack levels required when called: 1
  3252 ;; This function calls:
  3253 ;;		Nothing
  3254 ;; This function is called by:
  3255 ;;		_I2C_DO_RX
  3256 ;;		_I2C_DO_RX_ACK
  3257 ;; This function uses a non-reentrant model
  3258 ;;
  3259                           
  3260                           	psect	text38
  3261   001A2C                     __ptext38:
  3262                           	callstack 0
  3263   001A2C                     _I2C_MasterSendAck:
  3264                           	callstack 24
  3265   001A2C                     
  3266                           ;mcc_generated_files/i2c_master.c: 605:     SSPCON2bits.ACKDT = 0;
  3267   001A2C  9AC5               	bcf	197,5,c	;volatile
  3268                           
  3269                           ;mcc_generated_files/i2c_master.c: 606:     SSPCON2bits.ACKEN = 1;
  3270   001A2E  88C5               	bsf	197,4,c	;volatile
  3271   001A30  0012               	return		;funcret
  3272   001A32                     __end_of_I2C_MasterSendAck:
  3273                           	callstack 0
  3274                           
  3275 ;; *************** function _I2C_MasterGetRxData *****************
  3276 ;; Defined at:
  3277 ;;		line 563 in file "mcc_generated_files/i2c_master.c"
  3278 ;; Parameters:    Size  Location     Type
  3279 ;;		None
  3280 ;; Auto vars:     Size  Location     Type
  3281 ;;		None
  3282 ;; Return value:  Size  Location     Type
  3283 ;;                  1    wreg      unsigned char 
  3284 ;; Registers used:
  3285 ;;		wreg, status,2
  3286 ;; Tracked objects:
  3287 ;;		On entry : 0/0
  3288 ;;		On exit  : 0/0
  3289 ;;		Unchanged: 0/0
  3290 ;; Data sizes:     COMRAM   BANK0   BANK1   BANK2   BANK3   BANK4   BANK5   BANK6   BANK7   BANK8   BANK9  BANK10  BANK1
      +1  BANK12  BANK13  BANK14
  3291 ;;      Params:         0       0       0       0       0       0       0       0       0       0       0       0       
      +0       0       0       0
  3292 ;;      Locals:         0       0       0       0       0       0       0       0       0       0       0       0       
      +0       0       0       0
  3293 ;;      Temps:          0       0       0       0       0       0       0       0       0       0       0       0       
      +0       0       0       0
  3294 ;;      Totals:         0       0       0       0       0       0       0       0       0       0       0       0       
      +0       0       0       0
  3295 ;;Total ram usage:        0 bytes
  3296 ;; Hardware stack levels used: 1
  3297 ;; Hardware stack levels required when called: 1
  3298 ;; This function calls:
  3299 ;;		Nothing
  3300 ;; This function is called by:
  3301 ;;		_I2C_DO_RX
  3302 ;; This function uses a non-reentrant model
  3303 ;;
  3304                           
  3305                           	psect	text39
  3306   001A3C                     __ptext39:
  3307                           	callstack 0
  3308   001A3C                     _I2C_MasterGetRxData:
  3309                           	callstack 24
  3310   001A3C                     
  3311                           ;mcc_generated_files/i2c_master.c: 565:     return SSPBUF;
  3312   001A3C  50C9               	movf	201,w,c	;volatile
  3313   001A3E  0012               	return		;funcret
  3314   001A40                     __end_of_I2C_MasterGetRxData:
  3315                           	callstack 0
  3316                           
  3317 ;; *************** function _I2C_MasterSendNack *****************
  3318 ;; Defined at:
  3319 ;;		line 609 in file "mcc_generated_files/i2c_master.c"
  3320 ;; Parameters:    Size  Location     Type
  3321 ;;		None
  3322 ;; Auto vars:     Size  Location     Type
  3323 ;;		None
  3324 ;; Return value:  Size  Location     Type
  3325 ;;                  1    wreg      void 
  3326 ;; Registers used:
  3327 ;;		None
  3328 ;; Tracked objects:
  3329 ;;		On entry : 0/0
  3330 ;;		On exit  : 0/0
  3331 ;;		Unchanged: 0/0
  3332 ;; Data sizes:     COMRAM   BANK0   BANK1   BANK2   BANK3   BANK4   BANK5   BANK6   BANK7   BANK8   BANK9  BANK10  BANK1
      +1  BANK12  BANK13  BANK14
  3333 ;;      Params:         0       0       0       0       0       0       0       0       0       0       0       0       
      +0       0       0       0
  3334 ;;      Locals:         0       0       0       0       0       0       0       0       0       0       0       0       
      +0       0       0       0
  3335 ;;      Temps:          0       0       0       0       0       0       0       0       0       0       0       0       
      +0       0       0       0
  3336 ;;      Totals:         0       0       0       0       0       0       0       0       0       0       0       0       
      +0       0       0       0
  3337 ;;Total ram usage:        0 bytes
  3338 ;; Hardware stack levels used: 1
  3339 ;; Hardware stack levels required when called: 1
  3340 ;; This function calls:
  3341 ;;		Nothing
  3342 ;; This function is called by:
  3343 ;;		_I2C_DO_RX_NACK_STOP
  3344 ;;		_I2C_DO_RX_NACK_RESTART
  3345 ;; This function uses a non-reentrant model
  3346 ;;
  3347                           
  3348                           	psect	text40
  3349   001A32                     __ptext40:
  3350                           	callstack 0
  3351   001A32                     _I2C_MasterSendNack:
  3352                           	callstack 24
  3353   001A32                     
  3354                           ;mcc_generated_files/i2c_master.c: 611:     SSPCON2bits.ACKDT = 1;
  3355   001A32  8AC5               	bsf	197,5,c	;volatile
  3356                           
  3357                           ;mcc_generated_files/i2c_master.c: 612:     SSPCON2bits.ACKEN = 1;
  3358   001A34  88C5               	bsf	197,4,c	;volatile
  3359   001A36  0012               	return		;funcret
  3360   001A38                     __end_of_I2C_MasterSendNack:
  3361                           	callstack 0
  3362                           
  3363 ;; *************** function _I2C_MasterStartRx *****************
  3364 ;; Defined at:
  3365 ;;		line 583 in file "mcc_generated_files/i2c_master.c"
  3366 ;; Parameters:    Size  Location     Type
  3367 ;;		None
  3368 ;; Auto vars:     Size  Location     Type
  3369 ;;		None
  3370 ;; Return value:  Size  Location     Type
  3371 ;;                  1    wreg      void 
  3372 ;; Registers used:
  3373 ;;		None
  3374 ;; Tracked objects:
  3375 ;;		On entry : 0/0
  3376 ;;		On exit  : 0/0
  3377 ;;		Unchanged: 0/0
  3378 ;; Data sizes:     COMRAM   BANK0   BANK1   BANK2   BANK3   BANK4   BANK5   BANK6   BANK7   BANK8   BANK9  BANK10  BANK1
      +1  BANK12  BANK13  BANK14
  3379 ;;      Params:         0       0       0       0       0       0       0       0       0       0       0       0       
      +0       0       0       0
  3380 ;;      Locals:         0       0       0       0       0       0       0       0       0       0       0       0       
      +0       0       0       0
  3381 ;;      Temps:          0       0       0       0       0       0       0       0       0       0       0       0       
      +0       0       0       0
  3382 ;;      Totals:         0       0       0       0       0       0       0       0       0       0       0       0       
      +0       0       0       0
  3383 ;;Total ram usage:        0 bytes
  3384 ;; Hardware stack levels used: 1
  3385 ;; Hardware stack levels required when called: 1
  3386 ;; This function calls:
  3387 ;;		Nothing
  3388 ;; This function is called by:
  3389 ;;		_I2C_DO_RCEN
  3390 ;; This function uses a non-reentrant model
  3391 ;;
  3392                           
  3393                           	psect	text41
  3394   001A40                     __ptext41:
  3395                           	callstack 0
  3396   001A40                     _I2C_MasterStartRx:
  3397                           	callstack 24
  3398   001A40                     
  3399                           ;mcc_generated_files/i2c_master.c: 585:     SSPCON2bits.RCEN = 1;
  3400   001A40  86C5               	bsf	197,3,c	;volatile
  3401   001A42  0012               	return		;funcret
  3402   001A44                     __end_of_I2C_MasterStartRx:
  3403                           	callstack 0
  3404                           
  3405 ;; *************** function _I2C_CallbackReturnReset *****************
  3406 ;; Defined at:
  3407 ;;		line 525 in file "mcc_generated_files/i2c_master.c"
  3408 ;; Parameters:    Size  Location     Type
  3409 ;;  funPtr          2    9[COMRAM] PTR void 
  3410 ;;		 -> I2C_ReadDataBlock@bufferBlock(4), I2C_Write2ByteRegister@data(2), I2C_Write1ByteRegister@data(1), I2C_Read2ByteR
      +egister@returnValue(2), 
  3411 ;;		 -> I2C_Read1ByteRegister@returnValue(1), i2c_readDataBlock@d(4), i2c_write2ByteRegister@data(2), i2c_read2ByteRegis
      +ter@result(2), 
  3412 ;;		 -> i2c_read1ByteRegister@d2(1), i2c_write1ByteRegister@data(1), NULL(0), 
  3413 ;; Auto vars:     Size  Location     Type
  3414 ;;		None
  3415 ;; Return value:  Size  Location     Type
  3416 ;;                  1    wreg      enum E360
  3417 ;; Registers used:
  3418 ;;		wreg
  3419 ;; Tracked objects:
  3420 ;;		On entry : 0/0
  3421 ;;		On exit  : 0/0
  3422 ;;		Unchanged: 0/0
  3423 ;; Data sizes:     COMRAM   BANK0   BANK1   BANK2   BANK3   BANK4   BANK5   BANK6   BANK7   BANK8   BANK9  BANK10  BANK1
      +1  BANK12  BANK13  BANK14
  3424 ;;      Params:         2       0       0       0       0       0       0       0       0       0       0       0       
      +0       0       0       0
  3425 ;;      Locals:         0       0       0       0       0       0       0       0       0       0       0       0       
      +0       0       0       0
  3426 ;;      Temps:          0       0       0       0       0       0       0       0       0       0       0       0       
      +0       0       0       0
  3427 ;;      Totals:         2       0       0       0       0       0       0       0       0       0       0       0       
      +0       0       0       0
  3428 ;;Total ram usage:        2 bytes
  3429 ;; Hardware stack levels used: 1
  3430 ;; Hardware stack levels required when called: 1
  3431 ;; This function calls:
  3432 ;;		Nothing
  3433 ;; This function is called by:
  3434 ;;		_I2C_Open
  3435 ;;		_I2C_DO_TX
  3436 ;;		_I2C_DO_RX
  3437 ;;		_I2C_DO_TX_EMPTY
  3438 ;;		_I2C_DO_ADDRESS_NACK
  3439 ;;		_I2C_DO_RX_EMPTY
  3440 ;; This function uses a non-reentrant model
  3441 ;;
  3442                           
  3443                           	psect	text42
  3444   001A44                     __ptext42:
  3445                           	callstack 0
  3446   001A44                     _I2C_CallbackReturnReset:
  3447                           	callstack 24
  3448   001A44                     
  3449                           ;mcc_generated_files/i2c_master.c: 525: i2c_operations_t I2C_CallbackReturnReset(void *f
      +                          unPtr);mcc_generated_files/i2c_master.c: 526: {;mcc_generated_files/i2c_master.c: 527:  
      +                             return I2C_RESET_LINK;
  3450   001A44  0E05               	movlw	5
  3451   001A46  0012               	return		;funcret
  3452   001A48                     __end_of_I2C_CallbackReturnReset:
  3453                           	callstack 0
  3454                           
  3455 ;; *************** function _I2C_CallbackReturnStop *****************
  3456 ;; Defined at:
  3457 ;;		line 520 in file "mcc_generated_files/i2c_master.c"
  3458 ;; Parameters:    Size  Location     Type
  3459 ;;  funPtr          2    9[COMRAM] PTR void 
  3460 ;;		 -> I2C_ReadDataBlock@bufferBlock(4), I2C_Write2ByteRegister@data(2), I2C_Write1ByteRegister@data(1), I2C_Read2ByteR
      +egister@returnValue(2), 
  3461 ;;		 -> I2C_Read1ByteRegister@returnValue(1), i2c_readDataBlock@d(4), i2c_write2ByteRegister@data(2), i2c_read2ByteRegis
      +ter@result(2), 
  3462 ;;		 -> i2c_read1ByteRegister@d2(1), i2c_write1ByteRegister@data(1), NULL(0), 
  3463 ;; Auto vars:     Size  Location     Type
  3464 ;;		None
  3465 ;; Return value:  Size  Location     Type
  3466 ;;                  1    wreg      enum E360
  3467 ;; Registers used:
  3468 ;;		wreg
  3469 ;; Tracked objects:
  3470 ;;		On entry : 0/0
  3471 ;;		On exit  : 0/0
  3472 ;;		Unchanged: 0/0
  3473 ;; Data sizes:     COMRAM   BANK0   BANK1   BANK2   BANK3   BANK4   BANK5   BANK6   BANK7   BANK8   BANK9  BANK10  BANK1
      +1  BANK12  BANK13  BANK14
  3474 ;;      Params:         2       0       0       0       0       0       0       0       0       0       0       0       
      +0       0       0       0
  3475 ;;      Locals:         0       0       0       0       0       0       0       0       0       0       0       0       
      +0       0       0       0
  3476 ;;      Temps:          0       0       0       0       0       0       0       0       0       0       0       0       
      +0       0       0       0
  3477 ;;      Totals:         2       0       0       0       0       0       0       0       0       0       0       0       
      +0       0       0       0
  3478 ;;Total ram usage:        2 bytes
  3479 ;; Hardware stack levels used: 1
  3480 ;; Hardware stack levels required when called: 1
  3481 ;; This function calls:
  3482 ;;		Nothing
  3483 ;; This function is called by:
  3484 ;;		_I2C_Open
  3485 ;;		_I2C_SetCallback
  3486 ;;		_I2C_DO_TX
  3487 ;;		_I2C_DO_RX
  3488 ;;		_I2C_DO_TX_EMPTY
  3489 ;;		_I2C_DO_ADDRESS_NACK
  3490 ;;		_I2C_DO_RX_EMPTY
  3491 ;; This function uses a non-reentrant model
  3492 ;;
  3493                           
  3494                           	psect	text43
  3495   001A48                     __ptext43:
  3496                           	callstack 0
  3497   001A48                     _I2C_CallbackReturnStop:
  3498                           	callstack 24
  3499   001A48                     
  3500                           ;mcc_generated_files/i2c_master.c: 520: i2c_operations_t I2C_CallbackReturnStop(void *fu
      +                          nPtr);mcc_generated_files/i2c_master.c: 521: {;mcc_generated_files/i2c_master.c: 522:   
      +                            return I2C_STOP_M;
  3501   001A48  0E01               	movlw	1
  3502   001A4A  0012               	return		;funcret
  3503   001A4C                     __end_of_I2C_CallbackReturnStop:
  3504                           	callstack 0
  3505                           
  3506 ;; *************** function _rdBlkRegCompleteHandler@i2c_master_example$F179 *****************
  3507 ;; Defined at:
  3508 ;;		line 170 in file "mcc_generated_files/examples/i2c_master_example.c"
  3509 ;; Parameters:    Size  Location     Type
  3510 ;;  ptr             2    9[COMRAM] PTR void 
  3511 ;;		 -> I2C_ReadDataBlock@bufferBlock(4), I2C_Write2ByteRegister@data(2), I2C_Write1ByteRegister@data(1), I2C_Read2ByteR
      +egister@returnValue(2), 
  3512 ;;		 -> I2C_Read1ByteRegister@returnValue(1), i2c_readDataBlock@d(4), i2c_write2ByteRegister@data(2), i2c_read2ByteRegis
      +ter@result(2), 
  3513 ;;		 -> i2c_read1ByteRegister@d2(1), i2c_write1ByteRegister@data(1), NULL(0), 
  3514 ;; Auto vars:     Size  Location     Type
  3515 ;;		None
  3516 ;; Return value:  Size  Location     Type
  3517 ;;                  1    wreg      enum E360
  3518 ;; Registers used:
  3519 ;;		wreg, fsr2l, fsr2h, status,2, status,0, prodl, prodh, cstack
  3520 ;; Tracked objects:
  3521 ;;		On entry : 0/0
  3522 ;;		On exit  : 0/0
  3523 ;;		Unchanged: 0/0
  3524 ;; Data sizes:     COMRAM   BANK0   BANK1   BANK2   BANK3   BANK4   BANK5   BANK6   BANK7   BANK8   BANK9  BANK10  BANK1
      +1  BANK12  BANK13  BANK14
  3525 ;;      Params:         2       0       0       0       0       0       0       0       0       0       0       0       
      +0       0       0       0
  3526 ;;      Locals:         0       0       0       0       0       0       0       0       0       0       0       0       
      +0       0       0       0
  3527 ;;      Temps:          0       0       0       0       0       0       0       0       0       0       0       0       
      +0       0       0       0
  3528 ;;      Totals:         2       0       0       0       0       0       0       0       0       0       0       0       
      +0       0       0       0
  3529 ;;Total ram usage:        2 bytes
  3530 ;; Hardware stack levels used: 1
  3531 ;; Hardware stack levels required when called: 3
  3532 ;; This function calls:
  3533 ;;		_I2C_SetBuffer
  3534 ;;		_I2C_SetDataCompleteCallback
  3535 ;; This function is called by:
  3536 ;;		_I2C_ReadDataBlock
  3537 ;;		_I2C_DO_TX
  3538 ;;		_I2C_DO_RX
  3539 ;;		_I2C_DO_TX_EMPTY
  3540 ;;		_I2C_DO_ADDRESS_NACK
  3541 ;;		_I2C_DO_RX_EMPTY
  3542 ;; This function uses a non-reentrant model
  3543 ;;
  3544                           
  3545                           	psect	text44
  3546   00160C                     __ptext44:
  3547                           	callstack 0
  3548   00160C                     _rdBlkRegCompleteHandler@i2c_master_example$F179:
  3549                           	callstack 22
  3550   00160C                     
  3551                           ;mcc_generated_files/examples/i2c_master_example.c: 170: static i2c_operations_t rdBlkRe
      +                          gCompleteHandler(void *ptr);mcc_generated_files/examples/i2c_master_example.c: 171: {;mc
      +                          c_generated_files/examples/i2c_master_example.c: 172:     I2C_SetBuffer(((i2c_buffer_t *
      +                          )ptr)->data,((i2c_buffer_t*)ptr)->len);
  3552   00160C  EE20 F002          	lfsr	2,2
  3553   001610  5038               	movf	rdBlkRegCompleteHandler@i2c_master_example$F179@ptr^0,w,c
  3554   001612  26D9               	addwf	fsr2l,f,c
  3555   001614  5039               	movf	(rdBlkRegCompleteHandler@i2c_master_example$F179@ptr+1)^0,w,c
  3556   001616  22DA               	addwfc	fsr2h,f,c
  3557   001618  CFDE F02F          	movff	postinc2,I2C_SetBuffer@buffer
  3558   00161C  CFDD F030          	movff	postdec2,I2C_SetBuffer@buffer+1
  3559   001620  C038  FFD9         	movff	rdBlkRegCompleteHandler@i2c_master_example$F179@ptr,fsr2l
  3560   001624  C039  FFDA         	movff	rdBlkRegCompleteHandler@i2c_master_example$F179@ptr+1,fsr2h
  3561   001628  CFDE F031          	movff	postinc2,I2C_SetBuffer@bufferSize
  3562   00162C  CFDD F032          	movff	postdec2,I2C_SetBuffer@bufferSize+1
  3563   001630  EC6B  F00C         	call	_I2C_SetBuffer	;wreg free
  3564   001634                     
  3565                           ;mcc_generated_files/examples/i2c_master_example.c: 173:     I2C_SetDataCompleteCallback
      +                          (((void*)0),((void*)0));
  3566   001634  0E00               	movlw	0
  3567   001636  6E34               	movwf	I2C_SetDataCompleteCallback@cb^0,c
  3568   001638  0E00               	movlw	0
  3569   00163A  6E35               	movwf	(I2C_SetDataCompleteCallback@cb+1)^0,c
  3570   00163C  0E00               	movlw	0
  3571   00163E  6E36               	movwf	I2C_SetDataCompleteCallback@ptr^0,c
  3572   001640  0E00               	movlw	0
  3573   001642  6E37               	movwf	(I2C_SetDataCompleteCallback@ptr+1)^0,c
  3574   001644  EC8A  F00C         	call	_I2C_SetDataCompleteCallback	;wreg free
  3575   001648                     
  3576                           ;mcc_generated_files/examples/i2c_master_example.c: 174:     return I2C_RESTART_READ;
  3577   001648  0E02               	movlw	2
  3578   00164A  0012               	return		;funcret
  3579   00164C                     __end_of_rdBlkRegCompleteHandler@i2c_master_example$F179:
  3580                           	callstack 0
  3581                           
  3582 ;; *************** function _wr1RegCompleteHandler@i2c_master_example$F162 *****************
  3583 ;; Defined at:
  3584 ;;		line 156 in file "mcc_generated_files/examples/i2c_master_example.c"
  3585 ;; Parameters:    Size  Location     Type
  3586 ;;  ptr             2    9[COMRAM] PTR void 
  3587 ;;		 -> I2C_ReadDataBlock@bufferBlock(4), I2C_Write2ByteRegister@data(2), I2C_Write1ByteRegister@data(1), I2C_Read2ByteR
      +egister@returnValue(2), 
  3588 ;;		 -> I2C_Read1ByteRegister@returnValue(1), i2c_readDataBlock@d(4), i2c_write2ByteRegister@data(2), i2c_read2ByteRegis
      +ter@result(2), 
  3589 ;;		 -> i2c_read1ByteRegister@d2(1), i2c_write1ByteRegister@data(1), NULL(0), 
  3590 ;; Auto vars:     Size  Location     Type
  3591 ;;		None
  3592 ;; Return value:  Size  Location     Type
  3593 ;;                  1    wreg      enum E360
  3594 ;; Registers used:
  3595 ;;		wreg, fsr2l, fsr2h, status,2, status,0, prodl, prodh, cstack
  3596 ;; Tracked objects:
  3597 ;;		On entry : 0/0
  3598 ;;		On exit  : 0/0
  3599 ;;		Unchanged: 0/0
  3600 ;; Data sizes:     COMRAM   BANK0   BANK1   BANK2   BANK3   BANK4   BANK5   BANK6   BANK7   BANK8   BANK9  BANK10  BANK1
      +1  BANK12  BANK13  BANK14
  3601 ;;      Params:         2       0       0       0       0       0       0       0       0       0       0       0       
      +0       0       0       0
  3602 ;;      Locals:         0       0       0       0       0       0       0       0       0       0       0       0       
      +0       0       0       0
  3603 ;;      Temps:          0       0       0       0       0       0       0       0       0       0       0       0       
      +0       0       0       0
  3604 ;;      Totals:         2       0       0       0       0       0       0       0       0       0       0       0       
      +0       0       0       0
  3605 ;;Total ram usage:        2 bytes
  3606 ;; Hardware stack levels used: 1
  3607 ;; Hardware stack levels required when called: 3
  3608 ;; This function calls:
  3609 ;;		_I2C_SetBuffer
  3610 ;;		_I2C_SetDataCompleteCallback
  3611 ;; This function is called by:
  3612 ;;		_I2C_Write1ByteRegister
  3613 ;;		_I2C_DO_TX
  3614 ;;		_I2C_DO_RX
  3615 ;;		_I2C_DO_TX_EMPTY
  3616 ;;		_I2C_DO_ADDRESS_NACK
  3617 ;;		_I2C_DO_RX_EMPTY
  3618 ;; This function uses a non-reentrant model
  3619 ;;
  3620                           
  3621                           	psect	text45
  3622   001702                     __ptext45:
  3623                           	callstack 0
  3624   001702                     _wr1RegCompleteHandler@i2c_master_example$F162:
  3625                           	callstack 22
  3626   001702                     
  3627                           ;mcc_generated_files/examples/i2c_master_example.c: 156: static i2c_operations_t wr1RegC
      +                          ompleteHandler(void *ptr);mcc_generated_files/examples/i2c_master_example.c: 157: {;mcc_
      +                          generated_files/examples/i2c_master_example.c: 158:     I2C_SetBuffer(ptr,1);
  3628   001702  C038  F02F         	movff	wr1RegCompleteHandler@i2c_master_example$F162@ptr,I2C_SetBuffer@buffer
  3629   001706  C039  F030         	movff	wr1RegCompleteHandler@i2c_master_example$F162@ptr+1,I2C_SetBuffer@buffer+1
  3630   00170A  0E00               	movlw	0
  3631   00170C  6E32               	movwf	(I2C_SetBuffer@bufferSize+1)^0,c
  3632   00170E  0E01               	movlw	1
  3633   001710  6E31               	movwf	I2C_SetBuffer@bufferSize^0,c
  3634   001712  EC6B  F00C         	call	_I2C_SetBuffer	;wreg free
  3635   001716                     
  3636                           ;mcc_generated_files/examples/i2c_master_example.c: 159:     I2C_SetDataCompleteCallback
      +                          (((void*)0),((void*)0));
  3637   001716  0E00               	movlw	0
  3638   001718  6E34               	movwf	I2C_SetDataCompleteCallback@cb^0,c
  3639   00171A  0E00               	movlw	0
  3640   00171C  6E35               	movwf	(I2C_SetDataCompleteCallback@cb+1)^0,c
  3641   00171E  0E00               	movlw	0
  3642   001720  6E36               	movwf	I2C_SetDataCompleteCallback@ptr^0,c
  3643   001722  0E00               	movlw	0
  3644   001724  6E37               	movwf	(I2C_SetDataCompleteCallback@ptr+1)^0,c
  3645   001726  EC8A  F00C         	call	_I2C_SetDataCompleteCallback	;wreg free
  3646   00172A                     
  3647                           ;mcc_generated_files/examples/i2c_master_example.c: 160:     return I2C_CONTINUE;
  3648   00172A  0E04               	movlw	4
  3649   00172C  0012               	return		;funcret
  3650   00172E                     __end_of_wr1RegCompleteHandler@i2c_master_example$F162:
  3651                           	callstack 0
  3652                           
  3653 ;; *************** function _rd2RegCompleteHandler@i2c_master_example$F156 *****************
  3654 ;; Defined at:
  3655 ;;		line 149 in file "mcc_generated_files/examples/i2c_master_example.c"
  3656 ;; Parameters:    Size  Location     Type
  3657 ;;  ptr             2    9[COMRAM] PTR void 
  3658 ;;		 -> I2C_ReadDataBlock@bufferBlock(4), I2C_Write2ByteRegister@data(2), I2C_Write1ByteRegister@data(1), I2C_Read2ByteR
      +egister@returnValue(2), 
  3659 ;;		 -> I2C_Read1ByteRegister@returnValue(1), i2c_readDataBlock@d(4), i2c_write2ByteRegister@data(2), i2c_read2ByteRegis
      +ter@result(2), 
  3660 ;;		 -> i2c_read1ByteRegister@d2(1), i2c_write1ByteRegister@data(1), NULL(0), 
  3661 ;; Auto vars:     Size  Location     Type
  3662 ;;		None
  3663 ;; Return value:  Size  Location     Type
  3664 ;;                  1    wreg      enum E360
  3665 ;; Registers used:
  3666 ;;		wreg, fsr2l, fsr2h, status,2, status,0, prodl, prodh, cstack
  3667 ;; Tracked objects:
  3668 ;;		On entry : 0/0
  3669 ;;		On exit  : 0/0
  3670 ;;		Unchanged: 0/0
  3671 ;; Data sizes:     COMRAM   BANK0   BANK1   BANK2   BANK3   BANK4   BANK5   BANK6   BANK7   BANK8   BANK9  BANK10  BANK1
      +1  BANK12  BANK13  BANK14
  3672 ;;      Params:         2       0       0       0       0       0       0       0       0       0       0       0       
      +0       0       0       0
  3673 ;;      Locals:         0       0       0       0       0       0       0       0       0       0       0       0       
      +0       0       0       0
  3674 ;;      Temps:          0       0       0       0       0       0       0       0       0       0       0       0       
      +0       0       0       0
  3675 ;;      Totals:         2       0       0       0       0       0       0       0       0       0       0       0       
      +0       0       0       0
  3676 ;;Total ram usage:        2 bytes
  3677 ;; Hardware stack levels used: 1
  3678 ;; Hardware stack levels required when called: 3
  3679 ;; This function calls:
  3680 ;;		_I2C_SetBuffer
  3681 ;;		_I2C_SetDataCompleteCallback
  3682 ;; This function is called by:
  3683 ;;		_I2C_Read2ByteRegister
  3684 ;;		_I2C_DO_TX
  3685 ;;		_I2C_DO_RX
  3686 ;;		_I2C_DO_TX_EMPTY
  3687 ;;		_I2C_DO_ADDRESS_NACK
  3688 ;;		_I2C_DO_RX_EMPTY
  3689 ;; This function uses a non-reentrant model
  3690 ;;
  3691                           
  3692                           	psect	text46
  3693   00172E                     __ptext46:
  3694                           	callstack 0
  3695   00172E                     _rd2RegCompleteHandler@i2c_master_example$F156:
  3696                           	callstack 22
  3697   00172E                     
  3698                           ;mcc_generated_files/examples/i2c_master_example.c: 149: static i2c_operations_t rd2RegC
      +                          ompleteHandler(void *ptr);mcc_generated_files/examples/i2c_master_example.c: 150: {;mcc_
      +                          generated_files/examples/i2c_master_example.c: 151:     I2C_SetBuffer(ptr,2);
  3699   00172E  C038  F02F         	movff	rd2RegCompleteHandler@i2c_master_example$F156@ptr,I2C_SetBuffer@buffer
  3700   001732  C039  F030         	movff	rd2RegCompleteHandler@i2c_master_example$F156@ptr+1,I2C_SetBuffer@buffer+1
  3701   001736  0E00               	movlw	0
  3702   001738  6E32               	movwf	(I2C_SetBuffer@bufferSize+1)^0,c
  3703   00173A  0E02               	movlw	2
  3704   00173C  6E31               	movwf	I2C_SetBuffer@bufferSize^0,c
  3705   00173E  EC6B  F00C         	call	_I2C_SetBuffer	;wreg free
  3706   001742                     
  3707                           ;mcc_generated_files/examples/i2c_master_example.c: 152:     I2C_SetDataCompleteCallback
      +                          (((void*)0),((void*)0));
  3708   001742  0E00               	movlw	0
  3709   001744  6E34               	movwf	I2C_SetDataCompleteCallback@cb^0,c
  3710   001746  0E00               	movlw	0
  3711   001748  6E35               	movwf	(I2C_SetDataCompleteCallback@cb+1)^0,c
  3712   00174A  0E00               	movlw	0
  3713   00174C  6E36               	movwf	I2C_SetDataCompleteCallback@ptr^0,c
  3714   00174E  0E00               	movlw	0
  3715   001750  6E37               	movwf	(I2C_SetDataCompleteCallback@ptr+1)^0,c
  3716   001752  EC8A  F00C         	call	_I2C_SetDataCompleteCallback	;wreg free
  3717   001756                     
  3718                           ;mcc_generated_files/examples/i2c_master_example.c: 153:     return I2C_RESTART_READ;
  3719   001756  0E02               	movlw	2
  3720   001758  0012               	return		;funcret
  3721   00175A                     __end_of_rd2RegCompleteHandler@i2c_master_example$F156:
  3722                           	callstack 0
  3723                           
  3724 ;; *************** function _rd1RegCompleteHandler@i2c_master_example$F145 *****************
  3725 ;; Defined at:
  3726 ;;		line 142 in file "mcc_generated_files/examples/i2c_master_example.c"
  3727 ;; Parameters:    Size  Location     Type
  3728 ;;  ptr             2    9[COMRAM] PTR void 
  3729 ;;		 -> I2C_ReadDataBlock@bufferBlock(4), I2C_Write2ByteRegister@data(2), I2C_Write1ByteRegister@data(1), I2C_Read2ByteR
      +egister@returnValue(2), 
  3730 ;;		 -> I2C_Read1ByteRegister@returnValue(1), i2c_readDataBlock@d(4), i2c_write2ByteRegister@data(2), i2c_read2ByteRegis
      +ter@result(2), 
  3731 ;;		 -> i2c_read1ByteRegister@d2(1), i2c_write1ByteRegister@data(1), NULL(0), 
  3732 ;; Auto vars:     Size  Location     Type
  3733 ;;		None
  3734 ;; Return value:  Size  Location     Type
  3735 ;;                  1    wreg      enum E360
  3736 ;; Registers used:
  3737 ;;		wreg, fsr2l, fsr2h, status,2, status,0, prodl, prodh, cstack
  3738 ;; Tracked objects:
  3739 ;;		On entry : 0/0
  3740 ;;		On exit  : 0/0
  3741 ;;		Unchanged: 0/0
  3742 ;; Data sizes:     COMRAM   BANK0   BANK1   BANK2   BANK3   BANK4   BANK5   BANK6   BANK7   BANK8   BANK9  BANK10  BANK1
      +1  BANK12  BANK13  BANK14
  3743 ;;      Params:         2       0       0       0       0       0       0       0       0       0       0       0       
      +0       0       0       0
  3744 ;;      Locals:         0       0       0       0       0       0       0       0       0       0       0       0       
      +0       0       0       0
  3745 ;;      Temps:          0       0       0       0       0       0       0       0       0       0       0       0       
      +0       0       0       0
  3746 ;;      Totals:         2       0       0       0       0       0       0       0       0       0       0       0       
      +0       0       0       0
  3747 ;;Total ram usage:        2 bytes
  3748 ;; Hardware stack levels used: 1
  3749 ;; Hardware stack levels required when called: 3
  3750 ;; This function calls:
  3751 ;;		_I2C_SetBuffer
  3752 ;;		_I2C_SetDataCompleteCallback
  3753 ;; This function is called by:
  3754 ;;		_I2C_Read1ByteRegister
  3755 ;;		_I2C_DO_TX
  3756 ;;		_I2C_DO_RX
  3757 ;;		_I2C_DO_TX_EMPTY
  3758 ;;		_I2C_DO_ADDRESS_NACK
  3759 ;;		_I2C_DO_RX_EMPTY
  3760 ;; This function uses a non-reentrant model
  3761 ;;
  3762                           
  3763                           	psect	text47
  3764   00175A                     __ptext47:
  3765                           	callstack 0
  3766   00175A                     _rd1RegCompleteHandler@i2c_master_example$F145:
  3767                           	callstack 22
  3768   00175A                     
  3769                           ;mcc_generated_files/examples/i2c_master_example.c: 142: static i2c_operations_t rd1RegC
      +                          ompleteHandler(void *ptr);mcc_generated_files/examples/i2c_master_example.c: 143: {;mcc_
      +                          generated_files/examples/i2c_master_example.c: 144:     I2C_SetBuffer(ptr,1);
  3770   00175A  C038  F02F         	movff	rd1RegCompleteHandler@i2c_master_example$F145@ptr,I2C_SetBuffer@buffer
  3771   00175E  C039  F030         	movff	rd1RegCompleteHandler@i2c_master_example$F145@ptr+1,I2C_SetBuffer@buffer+1
  3772   001762  0E00               	movlw	0
  3773   001764  6E32               	movwf	(I2C_SetBuffer@bufferSize+1)^0,c
  3774   001766  0E01               	movlw	1
  3775   001768  6E31               	movwf	I2C_SetBuffer@bufferSize^0,c
  3776   00176A  EC6B  F00C         	call	_I2C_SetBuffer	;wreg free
  3777   00176E                     
  3778                           ;mcc_generated_files/examples/i2c_master_example.c: 145:     I2C_SetDataCompleteCallback
      +                          (((void*)0),((void*)0));
  3779   00176E  0E00               	movlw	0
  3780   001770  6E34               	movwf	I2C_SetDataCompleteCallback@cb^0,c
  3781   001772  0E00               	movlw	0
  3782   001774  6E35               	movwf	(I2C_SetDataCompleteCallback@cb+1)^0,c
  3783   001776  0E00               	movlw	0
  3784   001778  6E36               	movwf	I2C_SetDataCompleteCallback@ptr^0,c
  3785   00177A  0E00               	movlw	0
  3786   00177C  6E37               	movwf	(I2C_SetDataCompleteCallback@ptr+1)^0,c
  3787   00177E  EC8A  F00C         	call	_I2C_SetDataCompleteCallback	;wreg free
  3788   001782                     
  3789                           ;mcc_generated_files/examples/i2c_master_example.c: 146:     return I2C_RESTART_READ;
  3790   001782  0E02               	movlw	2
  3791   001784  0012               	return		;funcret
  3792   001786                     __end_of_rd1RegCompleteHandler@i2c_master_example$F145:
  3793                           	callstack 0
  3794                           
  3795 ;; *************** function _rdBlkRegCompleteHandler *****************
  3796 ;; Defined at:
  3797 ;;		line 185 in file "mcc_generated_files/drivers/i2c_simple_master.c"
  3798 ;; Parameters:    Size  Location     Type
  3799 ;;  p               2    9[COMRAM] PTR void 
  3800 ;;		 -> I2C_ReadDataBlock@bufferBlock(4), I2C_Write2ByteRegister@data(2), I2C_Write1ByteRegister@data(1), I2C_Read2ByteR
      +egister@returnValue(2), 
  3801 ;;		 -> I2C_Read1ByteRegister@returnValue(1), i2c_readDataBlock@d(4), i2c_write2ByteRegister@data(2), i2c_read2ByteRegis
      +ter@result(2), 
  3802 ;;		 -> i2c_read1ByteRegister@d2(1), i2c_write1ByteRegister@data(1), NULL(0), 
  3803 ;; Auto vars:     Size  Location     Type
  3804 ;;		None
  3805 ;; Return value:  Size  Location     Type
  3806 ;;                  1    wreg      enum E360
  3807 ;; Registers used:
  3808 ;;		wreg, fsr2l, fsr2h, status,2, status,0, prodl, prodh, cstack
  3809 ;; Tracked objects:
  3810 ;;		On entry : 0/0
  3811 ;;		On exit  : 0/0
  3812 ;;		Unchanged: 0/0
  3813 ;; Data sizes:     COMRAM   BANK0   BANK1   BANK2   BANK3   BANK4   BANK5   BANK6   BANK7   BANK8   BANK9  BANK10  BANK1
      +1  BANK12  BANK13  BANK14
  3814 ;;      Params:         2       0       0       0       0       0       0       0       0       0       0       0       
      +0       0       0       0
  3815 ;;      Locals:         0       0       0       0       0       0       0       0       0       0       0       0       
      +0       0       0       0
  3816 ;;      Temps:          0       0       0       0       0       0       0       0       0       0       0       0       
      +0       0       0       0
  3817 ;;      Totals:         2       0       0       0       0       0       0       0       0       0       0       0       
      +0       0       0       0
  3818 ;;Total ram usage:        2 bytes
  3819 ;; Hardware stack levels used: 1
  3820 ;; Hardware stack levels required when called: 3
  3821 ;; This function calls:
  3822 ;;		_I2C_SetBuffer
  3823 ;;		_I2C_SetDataCompleteCallback
  3824 ;; This function is called by:
  3825 ;;		_i2c_readDataBlock
  3826 ;;		_I2C_DO_TX
  3827 ;;		_I2C_DO_RX
  3828 ;;		_I2C_DO_TX_EMPTY
  3829 ;;		_I2C_DO_ADDRESS_NACK
  3830 ;;		_I2C_DO_RX_EMPTY
  3831 ;; This function uses a non-reentrant model
  3832 ;;
  3833                           
  3834                           	psect	text48
  3835   00164C                     __ptext48:
  3836                           	callstack 0
  3837   00164C                     _rdBlkRegCompleteHandler:
  3838                           	callstack 22
  3839   00164C                     
  3840                           ;mcc_generated_files/drivers/i2c_simple_master.c: 185: static i2c_operations_t rdBlkRegC
      +                          ompleteHandler(void *p);mcc_generated_files/drivers/i2c_simple_master.c: 186: {;mcc_gene
      +                          rated_files/drivers/i2c_simple_master.c: 187:     I2C_SetBuffer(((buf_t *)p)->data,((buf
      +                          _t*)p)->len);
  3841   00164C  EE20 F002          	lfsr	2,2
  3842   001650  5038               	movf	rdBlkRegCompleteHandler@p^0,w,c
  3843   001652  26D9               	addwf	fsr2l,f,c
  3844   001654  5039               	movf	(rdBlkRegCompleteHandler@p+1)^0,w,c
  3845   001656  22DA               	addwfc	fsr2h,f,c
  3846   001658  CFDE F02F          	movff	postinc2,I2C_SetBuffer@buffer
  3847   00165C  CFDD F030          	movff	postdec2,I2C_SetBuffer@buffer+1
  3848   001660  C038  FFD9         	movff	rdBlkRegCompleteHandler@p,fsr2l
  3849   001664  C039  FFDA         	movff	rdBlkRegCompleteHandler@p+1,fsr2h
  3850   001668  CFDE F031          	movff	postinc2,I2C_SetBuffer@bufferSize
  3851   00166C  CFDD F032          	movff	postdec2,I2C_SetBuffer@bufferSize+1
  3852   001670  EC6B  F00C         	call	_I2C_SetBuffer	;wreg free
  3853   001674                     
  3854                           ;mcc_generated_files/drivers/i2c_simple_master.c: 188:     I2C_SetDataCompleteCallback((
      +                          (void*)0),((void*)0));
  3855   001674  0E00               	movlw	0
  3856   001676  6E34               	movwf	I2C_SetDataCompleteCallback@cb^0,c
  3857   001678  0E00               	movlw	0
  3858   00167A  6E35               	movwf	(I2C_SetDataCompleteCallback@cb+1)^0,c
  3859   00167C  0E00               	movlw	0
  3860   00167E  6E36               	movwf	I2C_SetDataCompleteCallback@ptr^0,c
  3861   001680  0E00               	movlw	0
  3862   001682  6E37               	movwf	(I2C_SetDataCompleteCallback@ptr+1)^0,c
  3863   001684  EC8A  F00C         	call	_I2C_SetDataCompleteCallback	;wreg free
  3864   001688                     
  3865                           ;mcc_generated_files/drivers/i2c_simple_master.c: 189:     return I2C_RESTART_READ;
  3866   001688  0E02               	movlw	2
  3867   00168A  0012               	return		;funcret
  3868   00168C                     __end_of_rdBlkRegCompleteHandler:
  3869                           	callstack 0
  3870                           
  3871 ;; *************** function _wr2RegCompleteHandler *****************
  3872 ;; Defined at:
  3873 ;;		line 151 in file "mcc_generated_files/drivers/i2c_simple_master.c"
  3874 ;; Parameters:    Size  Location     Type
  3875 ;;  p               2    9[COMRAM] PTR void 
  3876 ;;		 -> I2C_ReadDataBlock@bufferBlock(4), I2C_Write2ByteRegister@data(2), I2C_Write1ByteRegister@data(1), I2C_Read2ByteR
      +egister@returnValue(2), 
  3877 ;;		 -> I2C_Read1ByteRegister@returnValue(1), i2c_readDataBlock@d(4), i2c_write2ByteRegister@data(2), i2c_read2ByteRegis
      +ter@result(2), 
  3878 ;;		 -> i2c_read1ByteRegister@d2(1), i2c_write1ByteRegister@data(1), NULL(0), 
  3879 ;; Auto vars:     Size  Location     Type
  3880 ;;		None
  3881 ;; Return value:  Size  Location     Type
  3882 ;;                  1    wreg      enum E360
  3883 ;; Registers used:
  3884 ;;		wreg, fsr2l, fsr2h, status,2, status,0, prodl, prodh, cstack
  3885 ;; Tracked objects:
  3886 ;;		On entry : 0/0
  3887 ;;		On exit  : 0/0
  3888 ;;		Unchanged: 0/0
  3889 ;; Data sizes:     COMRAM   BANK0   BANK1   BANK2   BANK3   BANK4   BANK5   BANK6   BANK7   BANK8   BANK9  BANK10  BANK1
      +1  BANK12  BANK13  BANK14
  3890 ;;      Params:         2       0       0       0       0       0       0       0       0       0       0       0       
      +0       0       0       0
  3891 ;;      Locals:         0       0       0       0       0       0       0       0       0       0       0       0       
      +0       0       0       0
  3892 ;;      Temps:          0       0       0       0       0       0       0       0       0       0       0       0       
      +0       0       0       0
  3893 ;;      Totals:         2       0       0       0       0       0       0       0       0       0       0       0       
      +0       0       0       0
  3894 ;;Total ram usage:        2 bytes
  3895 ;; Hardware stack levels used: 1
  3896 ;; Hardware stack levels required when called: 3
  3897 ;; This function calls:
  3898 ;;		_I2C_SetBuffer
  3899 ;;		_I2C_SetDataCompleteCallback
  3900 ;; This function is called by:
  3901 ;;		_i2c_write2ByteRegister
  3902 ;;		_I2C_DO_TX
  3903 ;;		_I2C_DO_RX
  3904 ;;		_I2C_DO_TX_EMPTY
  3905 ;;		_I2C_DO_ADDRESS_NACK
  3906 ;;		_I2C_DO_RX_EMPTY
  3907 ;; This function uses a non-reentrant model
  3908 ;;
  3909                           
  3910                           	psect	text49
  3911   001786                     __ptext49:
  3912                           	callstack 0
  3913   001786                     _wr2RegCompleteHandler:
  3914                           	callstack 22
  3915   001786                     
  3916                           ;mcc_generated_files/drivers/i2c_simple_master.c: 151: static i2c_operations_t wr2RegCom
      +                          pleteHandler(void *p);mcc_generated_files/drivers/i2c_simple_master.c: 152: {;mcc_genera
      +                          ted_files/drivers/i2c_simple_master.c: 153:     I2C_SetBuffer(p,2);
  3917   001786  C038  F02F         	movff	wr2RegCompleteHandler@p,I2C_SetBuffer@buffer
  3918   00178A  C039  F030         	movff	wr2RegCompleteHandler@p+1,I2C_SetBuffer@buffer+1
  3919   00178E  0E00               	movlw	0
  3920   001790  6E32               	movwf	(I2C_SetBuffer@bufferSize+1)^0,c
  3921   001792  0E02               	movlw	2
  3922   001794  6E31               	movwf	I2C_SetBuffer@bufferSize^0,c
  3923   001796  EC6B  F00C         	call	_I2C_SetBuffer	;wreg free
  3924   00179A                     
  3925                           ;mcc_generated_files/drivers/i2c_simple_master.c: 154:     I2C_SetDataCompleteCallback((
      +                          (void*)0),((void*)0));
  3926   00179A  0E00               	movlw	0
  3927   00179C  6E34               	movwf	I2C_SetDataCompleteCallback@cb^0,c
  3928   00179E  0E00               	movlw	0
  3929   0017A0  6E35               	movwf	(I2C_SetDataCompleteCallback@cb+1)^0,c
  3930   0017A2  0E00               	movlw	0
  3931   0017A4  6E36               	movwf	I2C_SetDataCompleteCallback@ptr^0,c
  3932   0017A6  0E00               	movlw	0
  3933   0017A8  6E37               	movwf	(I2C_SetDataCompleteCallback@ptr+1)^0,c
  3934   0017AA  EC8A  F00C         	call	_I2C_SetDataCompleteCallback	;wreg free
  3935   0017AE                     
  3936                           ;mcc_generated_files/drivers/i2c_simple_master.c: 155:     return I2C_CONTINUE;
  3937   0017AE  0E04               	movlw	4
  3938   0017B0  0012               	return		;funcret
  3939   0017B2                     __end_of_wr2RegCompleteHandler:
  3940                           	callstack 0
  3941                           
  3942 ;; *************** function _rd2RegCompleteHandler *****************
  3943 ;; Defined at:
  3944 ;;		line 119 in file "mcc_generated_files/drivers/i2c_simple_master.c"
  3945 ;; Parameters:    Size  Location     Type
  3946 ;;  p               2    9[COMRAM] PTR void 
  3947 ;;		 -> I2C_ReadDataBlock@bufferBlock(4), I2C_Write2ByteRegister@data(2), I2C_Write1ByteRegister@data(1), I2C_Read2ByteR
      +egister@returnValue(2), 
  3948 ;;		 -> I2C_Read1ByteRegister@returnValue(1), i2c_readDataBlock@d(4), i2c_write2ByteRegister@data(2), i2c_read2ByteRegis
      +ter@result(2), 
  3949 ;;		 -> i2c_read1ByteRegister@d2(1), i2c_write1ByteRegister@data(1), NULL(0), 
  3950 ;; Auto vars:     Size  Location     Type
  3951 ;;		None
  3952 ;; Return value:  Size  Location     Type
  3953 ;;                  1    wreg      enum E360
  3954 ;; Registers used:
  3955 ;;		wreg, fsr2l, fsr2h, status,2, status,0, prodl, prodh, cstack
  3956 ;; Tracked objects:
  3957 ;;		On entry : 0/0
  3958 ;;		On exit  : 0/0
  3959 ;;		Unchanged: 0/0
  3960 ;; Data sizes:     COMRAM   BANK0   BANK1   BANK2   BANK3   BANK4   BANK5   BANK6   BANK7   BANK8   BANK9  BANK10  BANK1
      +1  BANK12  BANK13  BANK14
  3961 ;;      Params:         2       0       0       0       0       0       0       0       0       0       0       0       
      +0       0       0       0
  3962 ;;      Locals:         0       0       0       0       0       0       0       0       0       0       0       0       
      +0       0       0       0
  3963 ;;      Temps:          0       0       0       0       0       0       0       0       0       0       0       0       
      +0       0       0       0
  3964 ;;      Totals:         2       0       0       0       0       0       0       0       0       0       0       0       
      +0       0       0       0
  3965 ;;Total ram usage:        2 bytes
  3966 ;; Hardware stack levels used: 1
  3967 ;; Hardware stack levels required when called: 3
  3968 ;; This function calls:
  3969 ;;		_I2C_SetBuffer
  3970 ;;		_I2C_SetDataCompleteCallback
  3971 ;; This function is called by:
  3972 ;;		_i2c_read2ByteRegister
  3973 ;;		_I2C_DO_TX
  3974 ;;		_I2C_DO_RX
  3975 ;;		_I2C_DO_TX_EMPTY
  3976 ;;		_I2C_DO_ADDRESS_NACK
  3977 ;;		_I2C_DO_RX_EMPTY
  3978 ;; This function uses a non-reentrant model
  3979 ;;
  3980                           
  3981                           	psect	text50
  3982   0017B2                     __ptext50:
  3983                           	callstack 0
  3984   0017B2                     _rd2RegCompleteHandler:
  3985                           	callstack 22
  3986   0017B2                     
  3987                           ;mcc_generated_files/drivers/i2c_simple_master.c: 119: static i2c_operations_t rd2RegCom
      +                          pleteHandler(void *p);mcc_generated_files/drivers/i2c_simple_master.c: 120: {;mcc_genera
      +                          ted_files/drivers/i2c_simple_master.c: 121:     I2C_SetBuffer(p,2);
  3988   0017B2  C038  F02F         	movff	rd2RegCompleteHandler@p,I2C_SetBuffer@buffer
  3989   0017B6  C039  F030         	movff	rd2RegCompleteHandler@p+1,I2C_SetBuffer@buffer+1
  3990   0017BA  0E00               	movlw	0
  3991   0017BC  6E32               	movwf	(I2C_SetBuffer@bufferSize+1)^0,c
  3992   0017BE  0E02               	movlw	2
  3993   0017C0  6E31               	movwf	I2C_SetBuffer@bufferSize^0,c
  3994   0017C2  EC6B  F00C         	call	_I2C_SetBuffer	;wreg free
  3995   0017C6                     
  3996                           ;mcc_generated_files/drivers/i2c_simple_master.c: 122:     I2C_SetDataCompleteCallback((
      +                          (void*)0),((void*)0));
  3997   0017C6  0E00               	movlw	0
  3998   0017C8  6E34               	movwf	I2C_SetDataCompleteCallback@cb^0,c
  3999   0017CA  0E00               	movlw	0
  4000   0017CC  6E35               	movwf	(I2C_SetDataCompleteCallback@cb+1)^0,c
  4001   0017CE  0E00               	movlw	0
  4002   0017D0  6E36               	movwf	I2C_SetDataCompleteCallback@ptr^0,c
  4003   0017D2  0E00               	movlw	0
  4004   0017D4  6E37               	movwf	(I2C_SetDataCompleteCallback@ptr+1)^0,c
  4005   0017D6  EC8A  F00C         	call	_I2C_SetDataCompleteCallback	;wreg free
  4006   0017DA                     
  4007                           ;mcc_generated_files/drivers/i2c_simple_master.c: 123:     return I2C_RESTART_READ;
  4008   0017DA  0E02               	movlw	2
  4009   0017DC  0012               	return		;funcret
  4010   0017DE                     __end_of_rd2RegCompleteHandler:
  4011                           	callstack 0
  4012                           
  4013 ;; *************** function _rd1RegCompleteHandler *****************
  4014 ;; Defined at:
  4015 ;;		line 81 in file "mcc_generated_files/drivers/i2c_simple_master.c"
  4016 ;; Parameters:    Size  Location     Type
  4017 ;;  p               2    9[COMRAM] PTR void 
  4018 ;;		 -> I2C_ReadDataBlock@bufferBlock(4), I2C_Write2ByteRegister@data(2), I2C_Write1ByteRegister@data(1), I2C_Read2ByteR
      +egister@returnValue(2), 
  4019 ;;		 -> I2C_Read1ByteRegister@returnValue(1), i2c_readDataBlock@d(4), i2c_write2ByteRegister@data(2), i2c_read2ByteRegis
      +ter@result(2), 
  4020 ;;		 -> i2c_read1ByteRegister@d2(1), i2c_write1ByteRegister@data(1), NULL(0), 
  4021 ;; Auto vars:     Size  Location     Type
  4022 ;;		None
  4023 ;; Return value:  Size  Location     Type
  4024 ;;                  1    wreg      enum E360
  4025 ;; Registers used:
  4026 ;;		wreg, fsr2l, fsr2h, status,2, status,0, prodl, prodh, cstack
  4027 ;; Tracked objects:
  4028 ;;		On entry : 0/0
  4029 ;;		On exit  : 0/0
  4030 ;;		Unchanged: 0/0
  4031 ;; Data sizes:     COMRAM   BANK0   BANK1   BANK2   BANK3   BANK4   BANK5   BANK6   BANK7   BANK8   BANK9  BANK10  BANK1
      +1  BANK12  BANK13  BANK14
  4032 ;;      Params:         2       0       0       0       0       0       0       0       0       0       0       0       
      +0       0       0       0
  4033 ;;      Locals:         0       0       0       0       0       0       0       0       0       0       0       0       
      +0       0       0       0
  4034 ;;      Temps:          0       0       0       0       0       0       0       0       0       0       0       0       
      +0       0       0       0
  4035 ;;      Totals:         2       0       0       0       0       0       0       0       0       0       0       0       
      +0       0       0       0
  4036 ;;Total ram usage:        2 bytes
  4037 ;; Hardware stack levels used: 1
  4038 ;; Hardware stack levels required when called: 3
  4039 ;; This function calls:
  4040 ;;		_I2C_SetBuffer
  4041 ;;		_I2C_SetDataCompleteCallback
  4042 ;; This function is called by:
  4043 ;;		_i2c_read1ByteRegister
  4044 ;;		_I2C_DO_TX
  4045 ;;		_I2C_DO_RX
  4046 ;;		_I2C_DO_TX_EMPTY
  4047 ;;		_I2C_DO_ADDRESS_NACK
  4048 ;;		_I2C_DO_RX_EMPTY
  4049 ;; This function uses a non-reentrant model
  4050 ;;
  4051                           
  4052                           	psect	text51
  4053   0017DE                     __ptext51:
  4054                           	callstack 0
  4055   0017DE                     _rd1RegCompleteHandler:
  4056                           	callstack 22
  4057   0017DE                     
  4058                           ;mcc_generated_files/drivers/i2c_simple_master.c: 81: static i2c_operations_t rd1RegComp
      +                          leteHandler(void *p);mcc_generated_files/drivers/i2c_simple_master.c: 82: {;mcc_generate
      +                          d_files/drivers/i2c_simple_master.c: 83:     I2C_SetBuffer(p,1);
  4059   0017DE  C038  F02F         	movff	rd1RegCompleteHandler@p,I2C_SetBuffer@buffer
  4060   0017E2  C039  F030         	movff	rd1RegCompleteHandler@p+1,I2C_SetBuffer@buffer+1
  4061   0017E6  0E00               	movlw	0
  4062   0017E8  6E32               	movwf	(I2C_SetBuffer@bufferSize+1)^0,c
  4063   0017EA  0E01               	movlw	1
  4064   0017EC  6E31               	movwf	I2C_SetBuffer@bufferSize^0,c
  4065   0017EE  EC6B  F00C         	call	_I2C_SetBuffer	;wreg free
  4066   0017F2                     
  4067                           ;mcc_generated_files/drivers/i2c_simple_master.c: 84:     I2C_SetDataCompleteCallback(((
      +                          void*)0),((void*)0));
  4068   0017F2  0E00               	movlw	0
  4069   0017F4  6E34               	movwf	I2C_SetDataCompleteCallback@cb^0,c
  4070   0017F6  0E00               	movlw	0
  4071   0017F8  6E35               	movwf	(I2C_SetDataCompleteCallback@cb+1)^0,c
  4072   0017FA  0E00               	movlw	0
  4073   0017FC  6E36               	movwf	I2C_SetDataCompleteCallback@ptr^0,c
  4074   0017FE  0E00               	movlw	0
  4075   001800  6E37               	movwf	(I2C_SetDataCompleteCallback@ptr+1)^0,c
  4076   001802  EC8A  F00C         	call	_I2C_SetDataCompleteCallback	;wreg free
  4077   001806                     
  4078                           ;mcc_generated_files/drivers/i2c_simple_master.c: 85:     return I2C_RESTART_READ;
  4079   001806  0E02               	movlw	2
  4080   001808  0012               	return		;funcret
  4081   00180A                     __end_of_rd1RegCompleteHandler:
  4082                           	callstack 0
  4083                           
  4084 ;; *************** function _wr1RegCompleteHandler *****************
  4085 ;; Defined at:
  4086 ;;		line 34 in file "mcc_generated_files/drivers/i2c_simple_master.c"
  4087 ;; Parameters:    Size  Location     Type
  4088 ;;  p               2    9[COMRAM] PTR void 
  4089 ;;		 -> I2C_ReadDataBlock@bufferBlock(4), I2C_Write2ByteRegister@data(2), I2C_Write1ByteRegister@data(1), I2C_Read2ByteR
      +egister@returnValue(2), 
  4090 ;;		 -> I2C_Read1ByteRegister@returnValue(1), i2c_readDataBlock@d(4), i2c_write2ByteRegister@data(2), i2c_read2ByteRegis
      +ter@result(2), 
  4091 ;;		 -> i2c_read1ByteRegister@d2(1), i2c_write1ByteRegister@data(1), NULL(0), 
  4092 ;; Auto vars:     Size  Location     Type
  4093 ;;		None
  4094 ;; Return value:  Size  Location     Type
  4095 ;;                  1    wreg      enum E360
  4096 ;; Registers used:
  4097 ;;		wreg, fsr2l, fsr2h, status,2, status,0, prodl, prodh, cstack
  4098 ;; Tracked objects:
  4099 ;;		On entry : 0/0
  4100 ;;		On exit  : 0/0
  4101 ;;		Unchanged: 0/0
  4102 ;; Data sizes:     COMRAM   BANK0   BANK1   BANK2   BANK3   BANK4   BANK5   BANK6   BANK7   BANK8   BANK9  BANK10  BANK1
      +1  BANK12  BANK13  BANK14
  4103 ;;      Params:         2       0       0       0       0       0       0       0       0       0       0       0       
      +0       0       0       0
  4104 ;;      Locals:         0       0       0       0       0       0       0       0       0       0       0       0       
      +0       0       0       0
  4105 ;;      Temps:          0       0       0       0       0       0       0       0       0       0       0       0       
      +0       0       0       0
  4106 ;;      Totals:         2       0       0       0       0       0       0       0       0       0       0       0       
      +0       0       0       0
  4107 ;;Total ram usage:        2 bytes
  4108 ;; Hardware stack levels used: 1
  4109 ;; Hardware stack levels required when called: 3
  4110 ;; This function calls:
  4111 ;;		_I2C_SetBuffer
  4112 ;;		_I2C_SetDataCompleteCallback
  4113 ;; This function is called by:
  4114 ;;		_i2c_write1ByteRegister
  4115 ;;		_I2C_DO_TX
  4116 ;;		_I2C_DO_RX
  4117 ;;		_I2C_DO_TX_EMPTY
  4118 ;;		_I2C_DO_ADDRESS_NACK
  4119 ;;		_I2C_DO_RX_EMPTY
  4120 ;; This function uses a non-reentrant model
  4121 ;;
  4122                           
  4123                           	psect	text52
  4124   00180A                     __ptext52:
  4125                           	callstack 0
  4126   00180A                     _wr1RegCompleteHandler:
  4127                           	callstack 22
  4128   00180A                     
  4129                           ;mcc_generated_files/drivers/i2c_simple_master.c: 34: static i2c_operations_t wr1RegComp
      +                          leteHandler(void *p);mcc_generated_files/drivers/i2c_simple_master.c: 35: {;mcc_generate
      +                          d_files/drivers/i2c_simple_master.c: 36:     I2C_SetBuffer(p,1);
  4130   00180A  C038  F02F         	movff	wr1RegCompleteHandler@p,I2C_SetBuffer@buffer
  4131   00180E  C039  F030         	movff	wr1RegCompleteHandler@p+1,I2C_SetBuffer@buffer+1
  4132   001812  0E00               	movlw	0
  4133   001814  6E32               	movwf	(I2C_SetBuffer@bufferSize+1)^0,c
  4134   001816  0E01               	movlw	1
  4135   001818  6E31               	movwf	I2C_SetBuffer@bufferSize^0,c
  4136   00181A  EC6B  F00C         	call	_I2C_SetBuffer	;wreg free
  4137   00181E                     
  4138                           ;mcc_generated_files/drivers/i2c_simple_master.c: 37:     I2C_SetDataCompleteCallback(((
      +                          void*)0),((void*)0));
  4139   00181E  0E00               	movlw	0
  4140   001820  6E34               	movwf	I2C_SetDataCompleteCallback@cb^0,c
  4141   001822  0E00               	movlw	0
  4142   001824  6E35               	movwf	(I2C_SetDataCompleteCallback@cb+1)^0,c
  4143   001826  0E00               	movlw	0
  4144   001828  6E36               	movwf	I2C_SetDataCompleteCallback@ptr^0,c
  4145   00182A  0E00               	movlw	0
  4146   00182C  6E37               	movwf	(I2C_SetDataCompleteCallback@ptr+1)^0,c
  4147   00182E  EC8A  F00C         	call	_I2C_SetDataCompleteCallback	;wreg free
  4148   001832                     
  4149                           ;mcc_generated_files/drivers/i2c_simple_master.c: 38:     return I2C_CONTINUE;
  4150   001832  0E04               	movlw	4
  4151   001834  0012               	return		;funcret
  4152   001836                     __end_of_wr1RegCompleteHandler:
  4153                           	callstack 0
  4154                           
  4155 ;; *************** function _wr2RegCompleteHandler@i2c_master_example$F168 *****************
  4156 ;; Defined at:
  4157 ;;		line 163 in file "mcc_generated_files/examples/i2c_master_example.c"
  4158 ;; Parameters:    Size  Location     Type
  4159 ;;  ptr             2    9[COMRAM] PTR void 
  4160 ;;		 -> I2C_ReadDataBlock@bufferBlock(4), I2C_Write2ByteRegister@data(2), I2C_Write1ByteRegister@data(1), I2C_Read2ByteR
      +egister@returnValue(2), 
  4161 ;;		 -> I2C_Read1ByteRegister@returnValue(1), i2c_readDataBlock@d(4), i2c_write2ByteRegister@data(2), i2c_read2ByteRegis
      +ter@result(2), 
  4162 ;;		 -> i2c_read1ByteRegister@d2(1), i2c_write1ByteRegister@data(1), NULL(0), 
  4163 ;; Auto vars:     Size  Location     Type
  4164 ;;		None
  4165 ;; Return value:  Size  Location     Type
  4166 ;;                  1    wreg      enum E360
  4167 ;; Registers used:
  4168 ;;		wreg, fsr2l, fsr2h, status,2, status,0, prodl, prodh, cstack
  4169 ;; Tracked objects:
  4170 ;;		On entry : 0/0
  4171 ;;		On exit  : 0/0
  4172 ;;		Unchanged: 0/0
  4173 ;; Data sizes:     COMRAM   BANK0   BANK1   BANK2   BANK3   BANK4   BANK5   BANK6   BANK7   BANK8   BANK9  BANK10  BANK1
      +1  BANK12  BANK13  BANK14
  4174 ;;      Params:         2       0       0       0       0       0       0       0       0       0       0       0       
      +0       0       0       0
  4175 ;;      Locals:         0       0       0       0       0       0       0       0       0       0       0       0       
      +0       0       0       0
  4176 ;;      Temps:          0       0       0       0       0       0       0       0       0       0       0       0       
      +0       0       0       0
  4177 ;;      Totals:         2       0       0       0       0       0       0       0       0       0       0       0       
      +0       0       0       0
  4178 ;;Total ram usage:        2 bytes
  4179 ;; Hardware stack levels used: 1
  4180 ;; Hardware stack levels required when called: 3
  4181 ;; This function calls:
  4182 ;;		_I2C_SetBuffer
  4183 ;;		_I2C_SetDataCompleteCallback
  4184 ;; This function is called by:
  4185 ;;		_I2C_Write2ByteRegister
  4186 ;;		_I2C_DO_TX
  4187 ;;		_I2C_DO_RX
  4188 ;;		_I2C_DO_TX_EMPTY
  4189 ;;		_I2C_DO_ADDRESS_NACK
  4190 ;;		_I2C_DO_RX_EMPTY
  4191 ;; This function uses a non-reentrant model
  4192 ;;
  4193                           
  4194                           	psect	text53
  4195   001836                     __ptext53:
  4196                           	callstack 0
  4197   001836                     _wr2RegCompleteHandler@i2c_master_example$F168:
  4198                           	callstack 22
  4199   001836                     
  4200                           ;mcc_generated_files/examples/i2c_master_example.c: 163: static i2c_operations_t wr2RegC
      +                          ompleteHandler(void *ptr);mcc_generated_files/examples/i2c_master_example.c: 164: {;mcc_
      +                          generated_files/examples/i2c_master_example.c: 165:     I2C_SetBuffer(ptr,2);
  4201   001836  C038  F02F         	movff	wr2RegCompleteHandler@i2c_master_example$F168@ptr,I2C_SetBuffer@buffer
  4202   00183A  C039  F030         	movff	wr2RegCompleteHandler@i2c_master_example$F168@ptr+1,I2C_SetBuffer@buffer+1
  4203   00183E  0E00               	movlw	0
  4204   001840  6E32               	movwf	(I2C_SetBuffer@bufferSize+1)^0,c
  4205   001842  0E02               	movlw	2
  4206   001844  6E31               	movwf	I2C_SetBuffer@bufferSize^0,c
  4207   001846  EC6B  F00C         	call	_I2C_SetBuffer	;wreg free
  4208   00184A                     
  4209                           ;mcc_generated_files/examples/i2c_master_example.c: 166:     I2C_SetDataCompleteCallback
      +                          (((void*)0),((void*)0));
  4210   00184A  0E00               	movlw	0
  4211   00184C  6E34               	movwf	I2C_SetDataCompleteCallback@cb^0,c
  4212   00184E  0E00               	movlw	0
  4213   001850  6E35               	movwf	(I2C_SetDataCompleteCallback@cb+1)^0,c
  4214   001852  0E00               	movlw	0
  4215   001854  6E36               	movwf	I2C_SetDataCompleteCallback@ptr^0,c
  4216   001856  0E00               	movlw	0
  4217   001858  6E37               	movwf	(I2C_SetDataCompleteCallback@ptr+1)^0,c
  4218   00185A  EC8A  F00C         	call	_I2C_SetDataCompleteCallback	;wreg free
  4219   00185E                     
  4220                           ;mcc_generated_files/examples/i2c_master_example.c: 167:     return I2C_CONTINUE;
  4221   00185E  0E04               	movlw	4
  4222   001860  0012               	return		;funcret
  4223   001862                     __end_of_wr2RegCompleteHandler@i2c_master_example$F168:
  4224                           	callstack 0
  4225                           
  4226 ;; *************** function _I2C_SetDataCompleteCallback *****************
  4227 ;; Defined at:
  4228 ;;		line 273 in file "mcc_generated_files/i2c_master.c"
  4229 ;; Parameters:    Size  Location     Type
  4230 ;;  cb              2    5[COMRAM] PTR FTN(PTR void ,)enum 
  4231 ;;		 -> Absolute function(1), rdBlkRegCompleteHandler@i2c_master_example$F179(1), wr2RegCompleteHandler@i2c_master_examp
      +le$F168(1), wr1RegCompleteHandler@i2c_master_example$F162(1), 
  4232 ;;		 -> rd2RegCompleteHandler@i2c_master_example$F156(1), rd1RegCompleteHandler@i2c_master_example$F145(1), rdBlkRegComp
      +leteHandler(1), wr2RegCompleteHandler(1), 
  4233 ;;		 -> rd2RegCompleteHandler(1), rd1RegCompleteHandler(1), wr1RegCompleteHandler(1), 
  4234 ;;  ptr             2    7[COMRAM] PTR void 
  4235 ;;		 -> I2C_ReadDataBlock@bufferBlock(4), I2C_Write2ByteRegister@data(2), I2C_Write1ByteRegister@data(1), I2C_Read2ByteR
      +egister@returnValue(2), 
  4236 ;;		 -> I2C_Read1ByteRegister@returnValue(1), i2c_readDataBlock@d(4), i2c_write2ByteRegister@data(2), i2c_read2ByteRegis
      +ter@result(2), 
  4237 ;;		 -> i2c_read1ByteRegister@d2(1), i2c_write1ByteRegister@data(1), NULL(0), 
  4238 ;; Auto vars:     Size  Location     Type
  4239 ;;		None
  4240 ;; Return value:  Size  Location     Type
  4241 ;;                  1    wreg      void 
  4242 ;; Registers used:
  4243 ;;		wreg, fsr2l, fsr2h, status,2, status,0, prodl, prodh, cstack
  4244 ;; Tracked objects:
  4245 ;;		On entry : 0/0
  4246 ;;		On exit  : 0/0
  4247 ;;		Unchanged: 0/0
  4248 ;; Data sizes:     COMRAM   BANK0   BANK1   BANK2   BANK3   BANK4   BANK5   BANK6   BANK7   BANK8   BANK9  BANK10  BANK1
      +1  BANK12  BANK13  BANK14
  4249 ;;      Params:         4       0       0       0       0       0       0       0       0       0       0       0       
      +0       0       0       0
  4250 ;;      Locals:         0       0       0       0       0       0       0       0       0       0       0       0       
      +0       0       0       0
  4251 ;;      Temps:          0       0       0       0       0       0       0       0       0       0       0       0       
      +0       0       0       0
  4252 ;;      Totals:         4       0       0       0       0       0       0       0       0       0       0       0       
      +0       0       0       0
  4253 ;;Total ram usage:        4 bytes
  4254 ;; Hardware stack levels used: 1
  4255 ;; Hardware stack levels required when called: 2
  4256 ;; This function calls:
  4257 ;;		_I2C_SetCallback
  4258 ;; This function is called by:
  4259 ;;		_wr1RegCompleteHandler
  4260 ;;		_rd1RegCompleteHandler
  4261 ;;		_rd2RegCompleteHandler
  4262 ;;		_wr2RegCompleteHandler
  4263 ;;		_rdBlkRegCompleteHandler
  4264 ;;		_rd1RegCompleteHandler@i2c_master_example$F145
  4265 ;;		_rd2RegCompleteHandler@i2c_master_example$F156
  4266 ;;		_wr1RegCompleteHandler@i2c_master_example$F162
  4267 ;;		_wr2RegCompleteHandler@i2c_master_example$F168
  4268 ;;		_rdBlkRegCompleteHandler@i2c_master_example$F179
  4269 ;;		_i2c_write1ByteRegister
  4270 ;;		_i2c_read1ByteRegister
  4271 ;;		_i2c_read2ByteRegister
  4272 ;;		_i2c_write2ByteRegister
  4273 ;;		_i2c_readDataBlock
  4274 ;;		_I2C_Read1ByteRegister
  4275 ;;		_I2C_Read2ByteRegister
  4276 ;;		_I2C_Write1ByteRegister
  4277 ;;		_I2C_Write2ByteRegister
  4278 ;;		_I2C_ReadDataBlock
  4279 ;; This function uses a non-reentrant model
  4280 ;;
  4281                           
  4282                           	psect	text54
  4283   001914                     __ptext54:
  4284                           	callstack 0
  4285   001914                     _I2C_SetDataCompleteCallback:
  4286                           	callstack 22
  4287   001914                     
  4288                           ;mcc_generated_files/i2c_master.c: 273: void I2C_SetDataCompleteCallback(i2c_callback_t 
      +                          cb, void *ptr);mcc_generated_files/i2c_master.c: 274: {;mcc_generated_files/i2c_master.c
      +                          : 275:     I2C_SetCallback(I2C_DATA_COMPLETE, cb, ptr);
  4289   001914  C034  F02F         	movff	I2C_SetDataCompleteCallback@cb,I2C_SetCallback@cb
  4290   001918  C035  F030         	movff	I2C_SetDataCompleteCallback@cb+1,I2C_SetCallback@cb+1
  4291   00191C  C036  F031         	movff	I2C_SetDataCompleteCallback@ptr,I2C_SetCallback@ptr
  4292   001920  C037  F032         	movff	I2C_SetDataCompleteCallback@ptr+1,I2C_SetCallback@ptr+1
  4293   001924  0E00               	movlw	0
  4294   001926  ECA6  F009         	call	_I2C_SetCallback
  4295   00192A  0012               	return		;funcret
  4296   00192C                     __end_of_I2C_SetDataCompleteCallback:
  4297                           	callstack 0
  4298                           
  4299 ;; *************** function _I2C_SetCallback *****************
  4300 ;; Defined at:
  4301 ;;		line 298 in file "mcc_generated_files/i2c_master.c"
  4302 ;; Parameters:    Size  Location     Type
  4303 ;;  idx             1    wreg     enum E12604
  4304 ;;  cb              2    0[COMRAM] PTR FTN(PTR void ,)enum 
  4305 ;;		 -> Absolute function(1), rdBlkRegCompleteHandler@i2c_master_example$F179(1), wr2RegCompleteHandler@i2c_master_examp
      +le$F168(1), wr1RegCompleteHandler@i2c_master_example$F162(1), 
  4306 ;;		 -> rd2RegCompleteHandler@i2c_master_example$F156(1), rd1RegCompleteHandler@i2c_master_example$F145(1), rdBlkRegComp
      +leteHandler(1), wr2RegCompleteHandler(1), 
  4307 ;;		 -> rd2RegCompleteHandler(1), rd1RegCompleteHandler(1), wr1RegCompleteHandler(1), 
  4308 ;;  ptr             2    2[COMRAM] PTR void 
  4309 ;;		 -> I2C_ReadDataBlock@bufferBlock(4), I2C_Write2ByteRegister@data(2), I2C_Write1ByteRegister@data(1), I2C_Read2ByteR
      +egister@returnValue(2), 
  4310 ;;		 -> I2C_Read1ByteRegister@returnValue(1), i2c_readDataBlock@d(4), i2c_write2ByteRegister@data(2), i2c_read2ByteRegis
      +ter@result(2), 
  4311 ;;		 -> i2c_read1ByteRegister@d2(1), i2c_write1ByteRegister@data(1), NULL(0), 
  4312 ;; Auto vars:     Size  Location     Type
  4313 ;;  idx             1    4[COMRAM] enum E12604
  4314 ;; Return value:  Size  Location     Type
  4315 ;;                  1    wreg      void 
  4316 ;; Registers used:
  4317 ;;		wreg, fsr2l, fsr2h, status,2, status,0, prodl, prodh
  4318 ;; Tracked objects:
  4319 ;;		On entry : 0/0
  4320 ;;		On exit  : 0/0
  4321 ;;		Unchanged: 0/0
  4322 ;; Data sizes:     COMRAM   BANK0   BANK1   BANK2   BANK3   BANK4   BANK5   BANK6   BANK7   BANK8   BANK9  BANK10  BANK1
      +1  BANK12  BANK13  BANK14
  4323 ;;      Params:         4       0       0       0       0       0       0       0       0       0       0       0       
      +0       0       0       0
  4324 ;;      Locals:         1       0       0       0       0       0       0       0       0       0       0       0       
      +0       0       0       0
  4325 ;;      Temps:          0       0       0       0       0       0       0       0       0       0       0       0       
      +0       0       0       0
  4326 ;;      Totals:         5       0       0       0       0       0       0       0       0       0       0       0       
      +0       0       0       0
  4327 ;;Total ram usage:        5 bytes
  4328 ;; Hardware stack levels used: 1
  4329 ;; Hardware stack levels required when called: 1
  4330 ;; This function calls:
  4331 ;;		Nothing
  4332 ;; This function is called by:
  4333 ;;		_I2C_SetDataCompleteCallback
  4334 ;;		_I2C_SetWriteCollisionCallback
  4335 ;;		_I2C_SetAddressNackCallback
  4336 ;;		_I2C_SetDataNackCallback
  4337 ;;		_I2C_SetTimeoutCallback
  4338 ;; This function uses a non-reentrant model
  4339 ;;
  4340                           
  4341                           	psect	text55
  4342   00134C                     __ptext55:
  4343                           	callstack 0
  4344   00134C                     _I2C_SetCallback:
  4345                           	callstack 22
  4346                           
  4347                           ;incstack = 0
  4348                           ;I2C_SetCallback@idx stored from wreg
  4349   00134C  6E33               	movwf	I2C_SetCallback@idx^0,c
  4350   00134E                     
  4351                           ;mcc_generated_files/i2c_master.c: 298: static void I2C_SetCallback(i2c_callbackIndex_t 
      +                          idx, i2c_callback_t cb, void *ptr);mcc_generated_files/i2c_master.c: 299: {;mcc_generate
      +                          d_files/i2c_master.c: 300:     if(cb)
  4352   00134E  502F               	movf	I2C_SetCallback@cb^0,w,c
  4353   001350  1030               	iorwf	(I2C_SetCallback@cb+1)^0,w,c
  4354   001352  B4D8               	btfsc	status,2,c
  4355   001354  EFAE  F009         	goto	u741
  4356   001358  EFB0  F009         	goto	u740
  4357   00135C                     u741:
  4358   00135C  EFCA  F009         	goto	l2524
  4359   001360                     u740:
  4360   001360                     
  4361                           ;mcc_generated_files/i2c_master.c: 301:     {;mcc_generated_files/i2c_master.c: 302:    
      +                               I2C_Status.callbackTable[idx] = cb;
  4362   001360  5033               	movf	I2C_SetCallback@idx^0,w,c
  4363   001362  0D02               	mullw	2
  4364   001364  0E01               	movlw	low _I2C_Status
  4365   001366  24F3               	addwf	243,w,c
  4366   001368  6ED9               	movwf	fsr2l,c
  4367   00136A  0E00               	movlw	high _I2C_Status
  4368   00136C  20F4               	addwfc	prodh,w,c
  4369   00136E  6EDA               	movwf	fsr2h,c
  4370   001370  C02F  FFDE         	movff	I2C_SetCallback@cb,postinc2
  4371   001374  C030  FFDD         	movff	I2C_SetCallback@cb+1,postdec2
  4372                           
  4373                           ;mcc_generated_files/i2c_master.c: 303:         I2C_Status.callbackPayload[idx] = ptr;
  4374   001378  5033               	movf	I2C_SetCallback@idx^0,w,c
  4375   00137A  0D02               	mullw	2
  4376   00137C  0E0D               	movlw	low (_I2C_Status+12)
  4377   00137E  24F3               	addwf	243,w,c
  4378   001380  6ED9               	movwf	fsr2l,c
  4379   001382  0E00               	movlw	high (_I2C_Status+12)
  4380   001384  20F4               	addwfc	prodh,w,c
  4381   001386  6EDA               	movwf	fsr2h,c
  4382   001388  C031  FFDE         	movff	I2C_SetCallback@ptr,postinc2
  4383   00138C  C032  FFDD         	movff	I2C_SetCallback@ptr+1,postdec2
  4384                           
  4385                           ;mcc_generated_files/i2c_master.c: 304:     }
  4386   001390  EFE2  F009         	goto	l490
  4387   001394                     l2524:
  4388                           
  4389                           ;mcc_generated_files/i2c_master.c: 306:     {;mcc_generated_files/i2c_master.c: 307:    
      +                               I2C_Status.callbackTable[idx] = I2C_CallbackReturnStop;
  4390   001394  5033               	movf	I2C_SetCallback@idx^0,w,c
  4391   001396  0D02               	mullw	2
  4392   001398  0E01               	movlw	low _I2C_Status
  4393   00139A  24F3               	addwf	243,w,c
  4394   00139C  6ED9               	movwf	fsr2l,c
  4395   00139E  0E00               	movlw	high _I2C_Status
  4396   0013A0  20F4               	addwfc	prodh,w,c
  4397   0013A2  6EDA               	movwf	fsr2h,c
  4398   0013A4  0E48               	movlw	low _I2C_CallbackReturnStop
  4399   0013A6  6EDE               	movwf	postinc2,c
  4400   0013A8  0E1A               	movlw	high _I2C_CallbackReturnStop
  4401   0013AA  6EDD               	movwf	postdec2,c
  4402                           
  4403                           ;mcc_generated_files/i2c_master.c: 308:         I2C_Status.callbackPayload[idx] = ((void
      +                          *)0);
  4404   0013AC  5033               	movf	I2C_SetCallback@idx^0,w,c
  4405   0013AE  0D02               	mullw	2
  4406   0013B0  0E0D               	movlw	low (_I2C_Status+12)
  4407   0013B2  24F3               	addwf	243,w,c
  4408   0013B4  6ED9               	movwf	fsr2l,c
  4409   0013B6  0E00               	movlw	high (_I2C_Status+12)
  4410   0013B8  20F4               	addwfc	prodh,w,c
  4411   0013BA  6EDA               	movwf	fsr2h,c
  4412   0013BC  0E00               	movlw	0
  4413   0013BE  6EDE               	movwf	postinc2,c
  4414   0013C0  0E00               	movlw	0
  4415   0013C2  6EDD               	movwf	postdec2,c
  4416   0013C4                     l490:
  4417   0013C4  0012               	return		;funcret
  4418   0013C6                     __end_of_I2C_SetCallback:
  4419                           	callstack 0
  4420                           
  4421 ;; *************** function _I2C_SetBuffer *****************
  4422 ;; Defined at:
  4423 ;;		line 263 in file "mcc_generated_files/i2c_master.c"
  4424 ;; Parameters:    Size  Location     Type
  4425 ;;  buffer          2    0[COMRAM] PTR void 
  4426 ;;		 -> i2c_write1ByteRegister@data.data(3), i2c_read1ByteRegister@d2.data(3), i2c_read2ByteRegister@result.data(3), i2c
      +_write2ByteRegister@data.data(3), 
  4427 ;;		 -> I2C_Read1ByteRegister@returnValue.data(3), I2C_Read2ByteRegister@returnValue.data(3), I2C_Write1ByteRegister@dat
      +a.data(3), I2C_Write2ByteRegister@data.data(3), 
  4428 ;;		 -> main@message(3), EEPROM_Read@addrBuffer(2), EEPROM_Write@buffer(3), I2C_ReadDataBlock@reg(1), 
  4429 ;;		 -> I2C_ReadDataBlock@bufferBlock(4), bufferBlock.data(3), I2C_Write2ByteRegister@reg(1), I2C_Write2ByteRegister@dat
      +a(2), 
  4430 ;;		 -> I2C_Write1ByteRegister@reg(1), I2C_Write1ByteRegister@data(1), I2C_Read2ByteRegister@reg(1), I2C_Read2ByteRegist
      +er@returnValue(2), 
  4431 ;;		 -> I2C_Read1ByteRegister@reg(1), I2C_Read1ByteRegister@returnValue(1), i2c_readDataBlock@reg(1), i2c_readDataBlock@
      +d(4), 
  4432 ;;		 -> d.data(3), i2c_write2ByteRegister@reg(1), i2c_write2ByteRegister@data(2), i2c_read2ByteRegister@reg(1), 
  4433 ;;		 -> i2c_read2ByteRegister@result(2), i2c_read1ByteRegister@reg(1), i2c_read1ByteRegister@d2(1), i2c_write1ByteRegist
      +er@reg(1), 
  4434 ;;		 -> i2c_write1ByteRegister@data(1), NULL(0), 
  4435 ;;  bufferSize      2    2[COMRAM] unsigned int 
  4436 ;; Auto vars:     Size  Location     Type
  4437 ;;		None
  4438 ;; Return value:  Size  Location     Type
  4439 ;;                  1    wreg      void 
  4440 ;; Registers used:
  4441 ;;		wreg, status,2, status,0
  4442 ;; Tracked objects:
  4443 ;;		On entry : 0/0
  4444 ;;		On exit  : 0/0
  4445 ;;		Unchanged: 0/0
  4446 ;; Data sizes:     COMRAM   BANK0   BANK1   BANK2   BANK3   BANK4   BANK5   BANK6   BANK7   BANK8   BANK9  BANK10  BANK1
      +1  BANK12  BANK13  BANK14
  4447 ;;      Params:         4       0       0       0       0       0       0       0       0       0       0       0       
      +0       0       0       0
  4448 ;;      Locals:         0       0       0       0       0       0       0       0       0       0       0       0       
      +0       0       0       0
  4449 ;;      Temps:          0       0       0       0       0       0       0       0       0       0       0       0       
      +0       0       0       0
  4450 ;;      Totals:         4       0       0       0       0       0       0       0       0       0       0       0       
      +0       0       0       0
  4451 ;;Total ram usage:        4 bytes
  4452 ;; Hardware stack levels used: 1
  4453 ;; Hardware stack levels required when called: 1
  4454 ;; This function calls:
  4455 ;;		Nothing
  4456 ;; This function is called by:
  4457 ;;		_wr1RegCompleteHandler
  4458 ;;		_rd1RegCompleteHandler
  4459 ;;		_rd2RegCompleteHandler
  4460 ;;		_wr2RegCompleteHandler
  4461 ;;		_rdBlkRegCompleteHandler
  4462 ;;		_rd1RegCompleteHandler@i2c_master_example$F145
  4463 ;;		_rd2RegCompleteHandler@i2c_master_example$F156
  4464 ;;		_wr1RegCompleteHandler@i2c_master_example$F162
  4465 ;;		_wr2RegCompleteHandler@i2c_master_example$F168
  4466 ;;		_rdBlkRegCompleteHandler@i2c_master_example$F179
  4467 ;;		_LCD_Write
  4468 ;;		_EEPROM_Write
  4469 ;;		_EEPROM_Read
  4470 ;;		_i2c_write1ByteRegister
  4471 ;;		_i2c_writeNBytes
  4472 ;;		_i2c_read1ByteRegister
  4473 ;;		_i2c_read2ByteRegister
  4474 ;;		_i2c_write2ByteRegister
  4475 ;;		_i2c_readDataBlock
  4476 ;;		_i2c_readNBytes
  4477 ;;		_I2C_Read1ByteRegister
  4478 ;;		_I2C_Read2ByteRegister
  4479 ;;		_I2C_Write1ByteRegister
  4480 ;;		_I2C_Write2ByteRegister
  4481 ;;		_I2C_WriteNBytes
  4482 ;;		_I2C_ReadNBytes
  4483 ;;		_I2C_ReadDataBlock
  4484 ;; This function uses a non-reentrant model
  4485 ;;
  4486                           
  4487                           	psect	text56
  4488   0018D6                     __ptext56:
  4489                           	callstack 0
  4490   0018D6                     _I2C_SetBuffer:
  4491                           	callstack 28
  4492   0018D6                     
  4493                           ;mcc_generated_files/i2c_master.c: 263: void I2C_SetBuffer(void *buffer, size_t bufferSi
      +                          ze);mcc_generated_files/i2c_master.c: 264: {;mcc_generated_files/i2c_master.c: 265:     
      +                          if(I2C_Status.bufferFree)
  4494   0018D6  A624               	btfss	(_I2C_Status+35)^0,3,c
  4495   0018D8  EF70  F00C         	goto	u751
  4496   0018DC  EF72  F00C         	goto	u750
  4497   0018E0                     u751:
  4498   0018E0  EF7B  F00C         	goto	l470
  4499   0018E4                     u750:
  4500   0018E4                     
  4501                           ;mcc_generated_files/i2c_master.c: 266:     {;mcc_generated_files/i2c_master.c: 267:    
      +                               I2C_Status.data_ptr = buffer;
  4502   0018E4  C02F  F01E         	movff	I2C_SetBuffer@buffer,_I2C_Status+29
  4503   0018E8  C030  F01F         	movff	I2C_SetBuffer@buffer+1,_I2C_Status+30
  4504   0018EC                     
  4505                           ;mcc_generated_files/i2c_master.c: 268:         I2C_Status.data_length = bufferSize;
  4506   0018EC  C031  F020         	movff	I2C_SetBuffer@bufferSize,_I2C_Status+31
  4507   0018F0  C032  F021         	movff	I2C_SetBuffer@bufferSize+1,_I2C_Status+32
  4508   0018F4                     
  4509                           ;mcc_generated_files/i2c_master.c: 269:         I2C_Status.bufferFree = 0;
  4510   0018F4  9624               	bcf	(_I2C_Status+35)^0,3,c
  4511   0018F6                     l470:
  4512   0018F6  0012               	return		;funcret
  4513   0018F8                     __end_of_I2C_SetBuffer:
  4514                           	callstack 0
  4515                           
  4516 ;; *************** function _I2C_MasterStop *****************
  4517 ;; Defined at:
  4518 ;;		line 593 in file "mcc_generated_files/i2c_master.c"
  4519 ;; Parameters:    Size  Location     Type
  4520 ;;		None
  4521 ;; Auto vars:     Size  Location     Type
  4522 ;;		None
  4523 ;; Return value:  Size  Location     Type
  4524 ;;                  1    wreg      void 
  4525 ;; Registers used:
  4526 ;;		None
  4527 ;; Tracked objects:
  4528 ;;		On entry : 0/0
  4529 ;;		On exit  : 0/0
  4530 ;;		Unchanged: 0/0
  4531 ;; Data sizes:     COMRAM   BANK0   BANK1   BANK2   BANK3   BANK4   BANK5   BANK6   BANK7   BANK8   BANK9  BANK10  BANK1
      +1  BANK12  BANK13  BANK14
  4532 ;;      Params:         0       0       0       0       0       0       0       0       0       0       0       0       
      +0       0       0       0
  4533 ;;      Locals:         0       0       0       0       0       0       0       0       0       0       0       0       
      +0       0       0       0
  4534 ;;      Temps:          0       0       0       0       0       0       0       0       0       0       0       0       
      +0       0       0       0
  4535 ;;      Totals:         0       0       0       0       0       0       0       0       0       0       0       0       
      +0       0       0       0
  4536 ;;Total ram usage:        0 bytes
  4537 ;; Hardware stack levels used: 1
  4538 ;; Hardware stack levels required when called: 1
  4539 ;; This function calls:
  4540 ;;		Nothing
  4541 ;; This function is called by:
  4542 ;;		_I2C_DO_SEND_STOP
  4543 ;; This function uses a non-reentrant model
  4544 ;;
  4545                           
  4546                           	psect	text57
  4547   001A4C                     __ptext57:
  4548                           	callstack 0
  4549   001A4C                     _I2C_MasterStop:
  4550                           	callstack 23
  4551   001A4C                     
  4552                           ;mcc_generated_files/i2c_master.c: 595:     SSPCON2bits.PEN = 1;
  4553   001A4C  84C5               	bsf	197,2,c	;volatile
  4554   001A4E  0012               	return		;funcret
  4555   001A50                     __end_of_I2C_MasterStop:
  4556                           	callstack 0
  4557                           
  4558 ;; *************** function _I2C_MasterEnableRestart *****************
  4559 ;; Defined at:
  4560 ;;		line 573 in file "mcc_generated_files/i2c_master.c"
  4561 ;; Parameters:    Size  Location     Type
  4562 ;;		None
  4563 ;; Auto vars:     Size  Location     Type
  4564 ;;		None
  4565 ;; Return value:  Size  Location     Type
  4566 ;;                  1    wreg      void 
  4567 ;; Registers used:
  4568 ;;		None
  4569 ;; Tracked objects:
  4570 ;;		On entry : 0/0
  4571 ;;		On exit  : 0/0
  4572 ;;		Unchanged: 0/0
  4573 ;; Data sizes:     COMRAM   BANK0   BANK1   BANK2   BANK3   BANK4   BANK5   BANK6   BANK7   BANK8   BANK9  BANK10  BANK1
      +1  BANK12  BANK13  BANK14
  4574 ;;      Params:         0       0       0       0       0       0       0       0       0       0       0       0       
      +0       0       0       0
  4575 ;;      Locals:         0       0       0       0       0       0       0       0       0       0       0       0       
      +0       0       0       0
  4576 ;;      Temps:          0       0       0       0       0       0       0       0       0       0       0       0       
      +0       0       0       0
  4577 ;;      Totals:         0       0       0       0       0       0       0       0       0       0       0       0       
      +0       0       0       0
  4578 ;;Total ram usage:        0 bytes
  4579 ;; Hardware stack levels used: 1
  4580 ;; Hardware stack levels required when called: 1
  4581 ;; This function calls:
  4582 ;;		Nothing
  4583 ;; This function is called by:
  4584 ;;		_I2C_DO_SEND_RESTART_READ
  4585 ;;		_I2C_DO_SEND_RESTART_WRITE
  4586 ;;		_I2C_DO_SEND_RESTART
  4587 ;;		_I2C_DO_RX_EMPTY
  4588 ;; This function uses a non-reentrant model
  4589 ;;
  4590                           
  4591                           	psect	text58
  4592   001A50                     __ptext58:
  4593                           	callstack 0
  4594   001A50                     _I2C_MasterEnableRestart:
  4595                           	callstack 23
  4596   001A50                     
  4597                           ;mcc_generated_files/i2c_master.c: 575:     SSPCON2bits.RSEN = 1;
  4598   001A50  82C5               	bsf	197,1,c	;volatile
  4599   001A52  0012               	return		;funcret
  4600   001A54                     __end_of_I2C_MasterEnableRestart:
  4601                           	callstack 0
  4602                           
  4603 ;; *************** function _I2C_MasterStart *****************
  4604 ;; Defined at:
  4605 ;;		line 588 in file "mcc_generated_files/i2c_master.c"
  4606 ;; Parameters:    Size  Location     Type
  4607 ;;		None
  4608 ;; Auto vars:     Size  Location     Type
  4609 ;;		None
  4610 ;; Return value:  Size  Location     Type
  4611 ;;                  1    wreg      void 
  4612 ;; Registers used:
  4613 ;;		None
  4614 ;; Tracked objects:
  4615 ;;		On entry : 0/0
  4616 ;;		On exit  : 0/0
  4617 ;;		Unchanged: 0/0
  4618 ;; Data sizes:     COMRAM   BANK0   BANK1   BANK2   BANK3   BANK4   BANK5   BANK6   BANK7   BANK8   BANK9  BANK10  BANK1
      +1  BANK12  BANK13  BANK14
  4619 ;;      Params:         0       0       0       0       0       0       0       0       0       0       0       0       
      +0       0       0       0
  4620 ;;      Locals:         0       0       0       0       0       0       0       0       0       0       0       0       
      +0       0       0       0
  4621 ;;      Temps:          0       0       0       0       0       0       0       0       0       0       0       0       
      +0       0       0       0
  4622 ;;      Totals:         0       0       0       0       0       0       0       0       0       0       0       0       
      +0       0       0       0
  4623 ;;Total ram usage:        0 bytes
  4624 ;; Hardware stack levels used: 1
  4625 ;; Hardware stack levels required when called: 1
  4626 ;; This function calls:
  4627 ;;		Nothing
  4628 ;; This function is called by:
  4629 ;;		_I2C_MasterOperation
  4630 ;; This function uses a non-reentrant model
  4631 ;;
  4632                           
  4633                           	psect	text59
  4634   001A54                     __ptext59:
  4635                           	callstack 0
  4636   001A54                     _I2C_MasterStart:
  4637                           	callstack 27
  4638   001A54                     
  4639                           ;mcc_generated_files/i2c_master.c: 590:     SSPCON2bits.SEN = 1;
  4640   001A54  80C5               	bsf	197,0,c	;volatile
  4641   001A56  0012               	return		;funcret
  4642   001A58                     __end_of_I2C_MasterStart:
  4643                           	callstack 0
  4644                           
  4645 ;; *************** function _I2C_Close *****************
  4646 ;; Defined at:
  4647 ;;		line 209 in file "mcc_generated_files/i2c_master.c"
  4648 ;; Parameters:    Size  Location     Type
  4649 ;;		None
  4650 ;; Auto vars:     Size  Location     Type
  4651 ;;  returnValue     1    0[COMRAM] enum E355
  4652 ;; Return value:  Size  Location     Type
  4653 ;;                  1    wreg      enum E355
  4654 ;; Registers used:
  4655 ;;		wreg, status,2, cstack
  4656 ;; Tracked objects:
  4657 ;;		On entry : 0/0
  4658 ;;		On exit  : 0/0
  4659 ;;		Unchanged: 0/0
  4660 ;; Data sizes:     COMRAM   BANK0   BANK1   BANK2   BANK3   BANK4   BANK5   BANK6   BANK7   BANK8   BANK9  BANK10  BANK1
      +1  BANK12  BANK13  BANK14
  4661 ;;      Params:         0       0       0       0       0       0       0       0       0       0       0       0       
      +0       0       0       0
  4662 ;;      Locals:         1       0       0       0       0       0       0       0       0       0       0       0       
      +0       0       0       0
  4663 ;;      Temps:          0       0       0       0       0       0       0       0       0       0       0       0       
      +0       0       0       0
  4664 ;;      Totals:         1       0       0       0       0       0       0       0       0       0       0       0       
      +0       0       0       0
  4665 ;;Total ram usage:        1 bytes
  4666 ;; Hardware stack levels used: 1
  4667 ;; Hardware stack levels required when called: 2
  4668 ;; This function calls:
  4669 ;;		_I2C_MasterClearIrq
  4670 ;;		_I2C_MasterClose
  4671 ;;		_I2C_MasterDisableIrq
  4672 ;; This function is called by:
  4673 ;;		_LCD_Write
  4674 ;;		_EEPROM_Write
  4675 ;;		_EEPROM_Read
  4676 ;;		_i2c_write1ByteRegister
  4677 ;;		_i2c_writeNBytes
  4678 ;;		_i2c_read1ByteRegister
  4679 ;;		_i2c_read2ByteRegister
  4680 ;;		_i2c_write2ByteRegister
  4681 ;;		_i2c_readDataBlock
  4682 ;;		_i2c_readNBytes
  4683 ;;		_I2C_Read1ByteRegister
  4684 ;;		_I2C_Read2ByteRegister
  4685 ;;		_I2C_Write1ByteRegister
  4686 ;;		_I2C_Write2ByteRegister
  4687 ;;		_I2C_WriteNBytes
  4688 ;;		_I2C_ReadNBytes
  4689 ;;		_I2C_ReadDataBlock
  4690 ;; This function uses a non-reentrant model
  4691 ;;
  4692                           
  4693                           	psect	text60
  4694   001862                     __ptext60:
  4695                           	callstack 0
  4696   001862                     _I2C_Close:
  4697                           	callstack 27
  4698   001862                     
  4699                           ;mcc_generated_files/i2c_master.c: 211:     i2c_error_t returnValue = I2C_BUSY;
  4700   001862  0E01               	movlw	1
  4701   001864  6E2F               	movwf	I2C_Close@returnValue^0,c
  4702   001866                     
  4703                           ;mcc_generated_files/i2c_master.c: 212:     if(!I2C_Status.busy)
  4704   001866  B224               	btfsc	(_I2C_Status+35)^0,1,c
  4705   001868  EF38  F00C         	goto	u181
  4706   00186C  EF3A  F00C         	goto	u180
  4707   001870                     u181:
  4708   001870  EF44  F00C         	goto	l1934
  4709   001874                     u180:
  4710   001874                     
  4711                           ;mcc_generated_files/i2c_master.c: 213:     {;mcc_generated_files/i2c_master.c: 214:    
      +                               I2C_Status.inUse = 0;
  4712   001874  9424               	bcf	(_I2C_Status+35)^0,2,c
  4713                           
  4714                           ;mcc_generated_files/i2c_master.c: 215:         I2C_Status.address = 0xff;
  4715   001876  681D               	setf	(_I2C_Status+28)^0,c
  4716   001878                     
  4717                           ;mcc_generated_files/i2c_master.c: 216:         I2C_MasterClearIrq();
  4718   001878  EC30  F00D         	call	_I2C_MasterClearIrq	;wreg free
  4719                           
  4720                           ;mcc_generated_files/i2c_master.c: 217:         I2C_MasterDisableIrq();
  4721   00187C  EC2C  F00D         	call	_I2C_MasterDisableIrq	;wreg free
  4722                           
  4723                           ;mcc_generated_files/i2c_master.c: 218:         I2C_MasterClose();
  4724   001880  EC2E  F00D         	call	_I2C_MasterClose	;wreg free
  4725   001884                     
  4726                           ;mcc_generated_files/i2c_master.c: 219:         returnValue = I2C_Status.error;
  4727   001884  C023  F02F         	movff	_I2C_Status+34,I2C_Close@returnValue
  4728   001888                     l1934:
  4729                           
  4730                           ;mcc_generated_files/i2c_master.c: 221:     return returnValue;
  4731   001888  502F               	movf	I2C_Close@returnValue^0,w,c
  4732   00188A  0012               	return		;funcret
  4733   00188C                     __end_of_I2C_Close:
  4734                           	callstack 0
  4735                           
  4736 ;; *************** function _I2C_MasterDisableIrq *****************
  4737 ;; Defined at:
  4738 ;;		line 635 in file "mcc_generated_files/i2c_master.c"
  4739 ;; Parameters:    Size  Location     Type
  4740 ;;		None
  4741 ;; Auto vars:     Size  Location     Type
  4742 ;;		None
  4743 ;; Return value:  Size  Location     Type
  4744 ;;                  1    wreg      void 
  4745 ;; Registers used:
  4746 ;;		None
  4747 ;; Tracked objects:
  4748 ;;		On entry : 0/0
  4749 ;;		On exit  : 0/0
  4750 ;;		Unchanged: 0/0
  4751 ;; Data sizes:     COMRAM   BANK0   BANK1   BANK2   BANK3   BANK4   BANK5   BANK6   BANK7   BANK8   BANK9  BANK10  BANK1
      +1  BANK12  BANK13  BANK14
  4752 ;;      Params:         0       0       0       0       0       0       0       0       0       0       0       0       
      +0       0       0       0
  4753 ;;      Locals:         0       0       0       0       0       0       0       0       0       0       0       0       
      +0       0       0       0
  4754 ;;      Temps:          0       0       0       0       0       0       0       0       0       0       0       0       
      +0       0       0       0
  4755 ;;      Totals:         0       0       0       0       0       0       0       0       0       0       0       0       
      +0       0       0       0
  4756 ;;Total ram usage:        0 bytes
  4757 ;; Hardware stack levels used: 1
  4758 ;; Hardware stack levels required when called: 1
  4759 ;; This function calls:
  4760 ;;		Nothing
  4761 ;; This function is called by:
  4762 ;;		_I2C_Close
  4763 ;;		_I2C_SetTimeOut
  4764 ;; This function uses a non-reentrant model
  4765 ;;
  4766                           
  4767                           	psect	text61
  4768   001A58                     __ptext61:
  4769                           	callstack 0
  4770   001A58                     _I2C_MasterDisableIrq:
  4771                           	callstack 27
  4772   001A58                     
  4773                           ;mcc_generated_files/i2c_master.c: 637:     PIE1bits.SSPIE = 0;
  4774   001A58  969D               	bcf	157,3,c	;volatile
  4775   001A5A  0012               	return		;funcret
  4776   001A5C                     __end_of_I2C_MasterDisableIrq:
  4777                           	callstack 0
  4778                           
  4779 ;; *************** function _I2C_MasterClose *****************
  4780 ;; Defined at:
  4781 ;;		line 557 in file "mcc_generated_files/i2c_master.c"
  4782 ;; Parameters:    Size  Location     Type
  4783 ;;		None
  4784 ;; Auto vars:     Size  Location     Type
  4785 ;;		None
  4786 ;; Return value:  Size  Location     Type
  4787 ;;                  1    wreg      void 
  4788 ;; Registers used:
  4789 ;;		None
  4790 ;; Tracked objects:
  4791 ;;		On entry : 0/0
  4792 ;;		On exit  : 0/0
  4793 ;;		Unchanged: 0/0
  4794 ;; Data sizes:     COMRAM   BANK0   BANK1   BANK2   BANK3   BANK4   BANK5   BANK6   BANK7   BANK8   BANK9  BANK10  BANK1
      +1  BANK12  BANK13  BANK14
  4795 ;;      Params:         0       0       0       0       0       0       0       0       0       0       0       0       
      +0       0       0       0
  4796 ;;      Locals:         0       0       0       0       0       0       0       0       0       0       0       0       
      +0       0       0       0
  4797 ;;      Temps:          0       0       0       0       0       0       0       0       0       0       0       0       
      +0       0       0       0
  4798 ;;      Totals:         0       0       0       0       0       0       0       0       0       0       0       0       
      +0       0       0       0
  4799 ;;Total ram usage:        0 bytes
  4800 ;; Hardware stack levels used: 1
  4801 ;; Hardware stack levels required when called: 1
  4802 ;; This function calls:
  4803 ;;		Nothing
  4804 ;; This function is called by:
  4805 ;;		_I2C_Close
  4806 ;; This function uses a non-reentrant model
  4807 ;;
  4808                           
  4809                           	psect	text62
  4810   001A5C                     __ptext62:
  4811                           	callstack 0
  4812   001A5C                     _I2C_MasterClose:
  4813                           	callstack 27
  4814   001A5C                     
  4815                           ;mcc_generated_files/i2c_master.c: 560:     SSPCON1bits.SSPEN = 0;
  4816   001A5C  9AC6               	bcf	198,5,c	;volatile
  4817   001A5E  0012               	return		;funcret
  4818   001A60                     __end_of_I2C_MasterClose:
  4819                           	callstack 0
  4820                           
  4821 ;; *************** function _I2C_MasterClearIrq *****************
  4822 ;; Defined at:
  4823 ;;		line 640 in file "mcc_generated_files/i2c_master.c"
  4824 ;; Parameters:    Size  Location     Type
  4825 ;;		None
  4826 ;; Auto vars:     Size  Location     Type
  4827 ;;		None
  4828 ;; Return value:  Size  Location     Type
  4829 ;;                  1    wreg      void 
  4830 ;; Registers used:
  4831 ;;		None
  4832 ;; Tracked objects:
  4833 ;;		On entry : 0/0
  4834 ;;		On exit  : 0/0
  4835 ;;		Unchanged: 0/0
  4836 ;; Data sizes:     COMRAM   BANK0   BANK1   BANK2   BANK3   BANK4   BANK5   BANK6   BANK7   BANK8   BANK9  BANK10  BANK1
      +1  BANK12  BANK13  BANK14
  4837 ;;      Params:         0       0       0       0       0       0       0       0       0       0       0       0       
      +0       0       0       0
  4838 ;;      Locals:         0       0       0       0       0       0       0       0       0       0       0       0       
      +0       0       0       0
  4839 ;;      Temps:          0       0       0       0       0       0       0       0       0       0       0       0       
      +0       0       0       0
  4840 ;;      Totals:         0       0       0       0       0       0       0       0       0       0       0       0       
      +0       0       0       0
  4841 ;;Total ram usage:        0 bytes
  4842 ;; Hardware stack levels used: 1
  4843 ;; Hardware stack levels required when called: 1
  4844 ;; This function calls:
  4845 ;;		Nothing
  4846 ;; This function is called by:
  4847 ;;		_I2C_Open
  4848 ;;		_I2C_Close
  4849 ;;		_I2C_MasterFsm
  4850 ;; This function uses a non-reentrant model
  4851 ;;
  4852                           
  4853                           	psect	text63
  4854   001A60                     __ptext63:
  4855                           	callstack 0
  4856   001A60                     _I2C_MasterClearIrq:
  4857                           	callstack 27
  4858   001A60                     
  4859                           ;mcc_generated_files/i2c_master.c: 642:     PIR1bits.SSPIF = 0;
  4860   001A60  969E               	bcf	158,3,c	;volatile
  4861   001A62  0012               	return		;funcret
  4862   001A64                     __end_of_I2C_MasterClearIrq:
  4863                           	callstack 0
  4864                           
  4865 ;; *************** function _INTERRUPT_InterruptManager *****************
  4866 ;; Defined at:
  4867 ;;		line 58 in file "mcc_generated_files/interrupt_manager.c"
  4868 ;; Parameters:    Size  Location     Type
  4869 ;;		None
  4870 ;; Auto vars:     Size  Location     Type
  4871 ;;		None
  4872 ;; Return value:  Size  Location     Type
  4873 ;;                  1    wreg      void 
  4874 ;; Registers used:
  4875 ;;		wreg
  4876 ;; Tracked objects:
  4877 ;;		On entry : 0/0
  4878 ;;		On exit  : 0/0
  4879 ;;		Unchanged: 0/0
  4880 ;; Data sizes:     COMRAM   BANK0   BANK1   BANK2   BANK3   BANK4   BANK5   BANK6   BANK7   BANK8   BANK9  BANK10  BANK1
      +1  BANK12  BANK13  BANK14
  4881 ;;      Params:         0       0       0       0       0       0       0       0       0       0       0       0       
      +0       0       0       0
  4882 ;;      Locals:         0       0       0       0       0       0       0       0       0       0       0       0       
      +0       0       0       0
  4883 ;;      Temps:          0       0       0       0       0       0       0       0       0       0       0       0       
      +0       0       0       0
  4884 ;;      Totals:         0       0       0       0       0       0       0       0       0       0       0       0       
      +0       0       0       0
  4885 ;;Total ram usage:        0 bytes
  4886 ;; Hardware stack levels used: 1
  4887 ;; This function calls:
  4888 ;;		Nothing
  4889 ;; This function is called by:
  4890 ;;		Interrupt level 2
  4891 ;; This function uses a non-reentrant model
  4892 ;;
  4893                           
  4894                           	psect	intcode
  4895   000008                     __pintcode:
  4896                           	callstack 0
  4897   000008                     _INTERRUPT_InterruptManager:
  4898                           	callstack 22
  4899                           
  4900                           ;incstack = 0
  4901   000008  8252               	bsf	int$flags,1,c	;set compiler interrupt flag (level 2)
  4902   00000A                     
  4903                           ;mcc_generated_files/interrupt_manager.c: 61:     if(INTCONbits.PEIE == 1)
  4904   00000A  ACF2               	btfss	242,6,c	;volatile
  4905   00000C  EF0A  F000         	goto	i2u67_41
  4906   000010  EF0C  F000         	goto	i2u67_40
  4907   000014                     i2u67_41:
  4908   000014  EF34  F000         	goto	i2l705
  4909   000018                     i2u67_40:
  4910   000018                     
  4911                           ;mcc_generated_files/interrupt_manager.c: 62:     {;mcc_generated_files/interrupt_manage
      +                          r.c: 63:         if(PIE1bits.TX1IE == 1 && PIR1bits.TX1IF == 1)
  4912   000018  A89D               	btfss	157,4,c	;volatile
  4913   00001A  EF11  F000         	goto	i2u68_41
  4914   00001E  EF13  F000         	goto	i2u68_40
  4915   000022                     i2u68_41:
  4916   000022  EF1C  F000         	goto	i2l698
  4917   000026                     i2u68_40:
  4918   000026                     
  4919                           ;mcc_generated_files/interrupt_manager.c: 64:         {;mcc_generated_files/interrupt_ma
      +                          nager.c: 65:             EUSART1_TxDefaultInterruptHandler();
  4920   000026  A89E               	btfss	158,4,c	;volatile
  4921   000028  EF18  F000         	goto	i2u69_41
  4922   00002C  EF1A  F000         	goto	i2u69_40
  4923   000030                     i2u69_41:
  4924   000030  EF1C  F000         	goto	i2l698
  4925   000034                     i2u69_40:
  4926   000034  EF34  F000         	goto	i2l705
  4927   000038                     i2l698:
  4928   000038  AA9D               	btfss	157,5,c	;volatile
  4929   00003A  EF21  F000         	goto	i2u70_41
  4930   00003E  EF23  F000         	goto	i2u70_40
  4931   000042                     i2u70_41:
  4932   000042  EF2C  F000         	goto	i2l700
  4933   000046                     i2u70_40:
  4934   000046                     
  4935                           ;mcc_generated_files/interrupt_manager.c: 68:         {;mcc_generated_files/interrupt_ma
      +                          nager.c: 69:             EUSART1_RxDefaultInterruptHandler();
  4936   000046  AA9E               	btfss	158,5,c	;volatile
  4937   000048  EF28  F000         	goto	i2u71_41
  4938   00004C  EF2A  F000         	goto	i2u71_40
  4939   000050                     i2u71_41:
  4940   000050  EF2C  F000         	goto	i2l700
  4941   000054                     i2u71_40:
  4942   000054  EF34  F000         	goto	i2l705
  4943   000058                     i2l700:
  4944   000058  A4A3               	btfss	163,2,c	;volatile
  4945   00005A  EF31  F000         	goto	i2u72_41
  4946   00005E  EF33  F000         	goto	i2u72_40
  4947   000062                     i2u72_41:
  4948   000062  EF34  F000         	goto	i2l705
  4949   000066                     i2u72_40:
  4950   000066  50A4               	movf	164,w,c	;volatile
  4951   000068                     i2l705:
  4952   000068  9252               	bcf	int$flags,1,c	;clear compiler interrupt flag (level 2)
  4953   00006A  0011               	retfie		f
  4954   00006C                     __end_of_INTERRUPT_InterruptManager:
  4955                           	callstack 0
  4956   00006C                     
  4957                           	psect	rparam
  4958   000000                     
  4959                           	psect	temp
  4960   000052                     btemp:
  4961                           	callstack 0
  4962   000052                     	ds	1
  4963   000000                     int$flags	set	btemp
  4964   000000                     wtemp8	set	btemp+1
  4965   000000                     ttemp5	set	btemp+1
  4966   000000                     ttemp6	set	btemp+4
  4967   000000                     ttemp7	set	btemp+8
  4968                           
  4969                           	psect	idloc
  4970                           
  4971                           ;Config register IDLOC0 @ 0x200000
  4972                           ;	unspecified, using default values
  4973   200000                     	org	2097152
  4974   200000  FF                 	db	255
  4975                           
  4976                           ;Config register IDLOC1 @ 0x200001
  4977                           ;	unspecified, using default values
  4978   200001                     	org	2097153
  4979   200001  FF                 	db	255
  4980                           
  4981                           ;Config register IDLOC2 @ 0x200002
  4982                           ;	unspecified, using default values
  4983   200002                     	org	2097154
  4984   200002  FF                 	db	255
  4985                           
  4986                           ;Config register IDLOC3 @ 0x200003
  4987                           ;	unspecified, using default values
  4988   200003                     	org	2097155
  4989   200003  FF                 	db	255
  4990                           
  4991                           ;Config register IDLOC4 @ 0x200004
  4992                           ;	unspecified, using default values
  4993   200004                     	org	2097156
  4994   200004  FF                 	db	255
  4995                           
  4996                           ;Config register IDLOC5 @ 0x200005
  4997                           ;	unspecified, using default values
  4998   200005                     	org	2097157
  4999   200005  FF                 	db	255
  5000                           
  5001                           ;Config register IDLOC6 @ 0x200006
  5002                           ;	unspecified, using default values
  5003   200006                     	org	2097158
  5004   200006  FF                 	db	255
  5005                           
  5006                           ;Config register IDLOC7 @ 0x200007
  5007                           ;	unspecified, using default values
  5008   200007                     	org	2097159
  5009   200007  FF                 	db	255
  5010                           
  5011                           	psect	config
  5012                           
  5013                           ;Config register CONFIG1L @ 0x300000
  5014                           ;	VREG Sleep Enable bit
  5015                           ;	RETEN = OFF, Ultra low-power regulator is Disabled (Controlled by REGSLP bit)
  5016                           ;	LF-INTOSC Low-power Enable bit
  5017                           ;	INTOSCSEL = HIGH, LF-INTOSC in High-power mode during Sleep
  5018                           ;	SOSC Power Selection and mode Configuration bits
  5019                           ;	SOSCSEL = DIG, Digital (SCLKI) mode
  5020                           ;	Extended Instruction Set
  5021                           ;	XINST = OFF, Disabled
  5022   300000                     	org	3145728
  5023   300000  15                 	db	21
  5024                           
  5025                           ;Config register CONFIG1H @ 0x300001
  5026                           ;	Oscillator
  5027                           ;	FOSC = HS2, HS oscillator (High power, 16 MHz - 25 MHz)
  5028                           ;	PLL x4 Enable bit
  5029                           ;	PLLCFG = OFF, Disabled
  5030                           ;	Fail-Safe Clock Monitor
  5031                           ;	FCMEN = OFF, Disabled
  5032                           ;	Internal External Oscillator Switch Over Mode
  5033                           ;	IESO = OFF, Disabled
  5034   300001                     	org	3145729
  5035   300001  02                 	db	2
  5036                           
  5037                           ;Config register CONFIG2L @ 0x300002
  5038                           ;	Power Up Timer
  5039                           ;	PWRTEN = OFF, Disabled
  5040                           ;	Brown Out Detect
  5041                           ;	BOREN = SBORDIS, Enabled in hardware, SBOREN disabled
  5042                           ;	Brown-out Reset Voltage bits
  5043                           ;	BORV = 3, 1.8V
  5044                           ;	BORMV Power level
  5045                           ;	BORPWR = ZPBORMV, ZPBORMV instead of BORMV is selected
  5046   300002                     	org	3145730
  5047   300002  7F                 	db	127
  5048                           
  5049                           ;Config register CONFIG2H @ 0x300003
  5050                           ;	Watchdog Timer
  5051                           ;	WDTEN = OFF, WDT disabled in hardware; SWDTEN bit disabled
  5052                           ;	Watchdog Postscaler
  5053                           ;	WDTPS = 1048576, 1:1048576
  5054   300003                     	org	3145731
  5055   300003  7C                 	db	124
  5056                           
  5057                           ; Padding undefined space
  5058   300004                     	org	3145732
  5059   300004  FF                 	db	255
  5060                           
  5061                           ;Config register CONFIG3H @ 0x300005
  5062                           ;	ECAN Mux bit
  5063                           ;	CANMX = PORTB, ECAN TX and RX pins are located on RB2 and RB3, respectively
  5064                           ;	MSSP address masking
  5065                           ;	MSSPMSK = MSK7, 7 Bit address masking mode
  5066                           ;	Master Clear Enable
  5067                           ;	MCLRE = ON, MCLR Enabled, RE3 Disabled
  5068   300005                     	org	3145733
  5069   300005  89                 	db	137
  5070                           
  5071                           ;Config register CONFIG4L @ 0x300006
  5072                           ;	Stack Overflow Reset
  5073                           ;	STVREN = ON, Enabled
  5074                           ;	Boot Block Size
  5075                           ;	BBSIZ = BB2K, 2K word Boot Block size
  5076   300006                     	org	3145734
  5077   300006  91                 	db	145
  5078                           
  5079                           ; Padding undefined space
  5080   300007                     	org	3145735
  5081   300007  FF                 	db	255
  5082                           
  5083                           ;Config register CONFIG5L @ 0x300008
  5084                           ;	Code Protect 00800-01FFF
  5085                           ;	CP0 = OFF, Disabled
  5086                           ;	Code Protect 02000-03FFF
  5087                           ;	CP1 = OFF, Disabled
  5088                           ;	Code Protect 04000-05FFF
  5089                           ;	CP2 = OFF, Disabled
  5090                           ;	Code Protect 06000-07FFF
  5091                           ;	CP3 = OFF, Disabled
  5092   300008                     	org	3145736
  5093   300008  0F                 	db	15
  5094                           
  5095                           ;Config register CONFIG5H @ 0x300009
  5096                           ;	Code Protect Boot
  5097                           ;	CPB = OFF, Disabled
  5098                           ;	Data EE Read Protect
  5099                           ;	CPD = OFF, Disabled
  5100   300009                     	org	3145737
  5101   300009  C0                 	db	192
  5102                           
  5103                           ;Config register CONFIG6L @ 0x30000A
  5104                           ;	Table Write Protect 00800-01FFF
  5105                           ;	WRT0 = OFF, Disabled
  5106                           ;	Table Write Protect 02000-03FFF
  5107                           ;	WRT1 = OFF, Disabled
  5108                           ;	Table Write Protect 04000-05FFF
  5109                           ;	WRT2 = OFF, Disabled
  5110                           ;	Table Write Protect 06000-07FFF
  5111                           ;	WRT3 = OFF, Disabled
  5112   30000A                     	org	3145738
  5113   30000A  0F                 	db	15
  5114                           
  5115                           ;Config register CONFIG6H @ 0x30000B
  5116                           ;	Config. Write Protect
  5117                           ;	WRTC = OFF, Disabled
  5118                           ;	Table Write Protect Boot
  5119                           ;	WRTB = OFF, Disabled
  5120                           ;	Data EE Write Protect
  5121                           ;	WRTD = OFF, Disabled
  5122   30000B                     	org	3145739
  5123   30000B  E0                 	db	224
  5124                           
  5125                           ;Config register CONFIG7L @ 0x30000C
  5126                           ;	Table Read Protect 00800-01FFF
  5127                           ;	EBTR0 = OFF, Disabled
  5128                           ;	Table Read Protect 02000-03FFF
  5129                           ;	EBTR1 = OFF, Disabled
  5130                           ;	Table Read Protect 04000-05FFF
  5131                           ;	EBTR2 = OFF, Disabled
  5132                           ;	Table Read Protect 06000-07FFF
  5133                           ;	EBTR3 = OFF, Disabled
  5134   30000C                     	org	3145740
  5135   30000C  0F                 	db	15
  5136                           
  5137                           ;Config register CONFIG7H @ 0x30000D
  5138                           ;	Table Read Protect Boot
  5139                           ;	EBTRB = OFF, Disabled
  5140   30000D                     	org	3145741
  5141   30000D  40                 	db	64
  5142                           tosu	equ	0xFFF
  5143                           tosh	equ	0xFFE
  5144                           tosl	equ	0xFFD
  5145                           stkptr	equ	0xFFC
  5146                           pclatu	equ	0xFFB
  5147                           pclath	equ	0xFFA
  5148                           pcl	equ	0xFF9
  5149                           tblptru	equ	0xFF8
  5150                           tblptrh	equ	0xFF7
  5151                           tblptrl	equ	0xFF6
  5152                           tablat	equ	0xFF5
  5153                           prodh	equ	0xFF4
  5154                           prodl	equ	0xFF3
  5155                           indf0	equ	0xFEF
  5156                           postinc0	equ	0xFEE
  5157                           postdec0	equ	0xFED
  5158                           preinc0	equ	0xFEC
  5159                           plusw0	equ	0xFEB
  5160                           fsr0h	equ	0xFEA
  5161                           fsr0l	equ	0xFE9
  5162                           wreg	equ	0xFE8
  5163                           indf1	equ	0xFE7
  5164                           postinc1	equ	0xFE6
  5165                           postdec1	equ	0xFE5
  5166                           preinc1	equ	0xFE4
  5167                           plusw1	equ	0xFE3
  5168                           fsr1h	equ	0xFE2
  5169                           fsr1l	equ	0xFE1
  5170                           bsr	equ	0xFE0
  5171                           indf2	equ	0xFDF
  5172                           postinc2	equ	0xFDE
  5173                           postdec2	equ	0xFDD
  5174                           preinc2	equ	0xFDC
  5175                           plusw2	equ	0xFDB
  5176                           fsr2h	equ	0xFDA
  5177                           fsr2l	equ	0xFD9
  5178                           status	equ	0xFD8

Data Sizes:
    Strings     0
    Constant    32
    Data        3
    BSS         50
    Persistent  6
    Stack       0

Auto Spaces:
    Space          Size  Autos    Used
    COMRAM           94     26      81
    BANK0           160      0       0
    BANK1           256      0       0
    BANK2           256      0       0
    BANK3           256      0       0
    BANK4           256      0       0
    BANK5           256      0       0
    BANK6           256      0       0
    BANK7           256      0       0
    BANK8           256      0       0
    BANK9           256      0       0
    BANK10          256      0       0
    BANK11          256      0       0
    BANK12          256      0       0
    BANK13          256      0       0
    BANK14           65      0       0

Pointer List with Targets:

    i2c_write1ByteRegister@data.data	PTR unsigned char  size(2) Largest target is 0

    i2c_read1ByteRegister@d2.data	PTR unsigned char  size(2) Largest target is 0

    i2c_read2ByteRegister@result.data	PTR unsigned char  size(2) Largest target is 0

    i2c_write2ByteRegister@data.data	PTR unsigned char  size(2) Largest target is 0

    I2C_Read1ByteRegister@returnValue.data	PTR unsigned char  size(2) Largest target is 0

    I2C_Read2ByteRegister@returnValue.data	PTR unsigned char  size(2) Largest target is 0

    I2C_Write1ByteRegister@data.data	PTR unsigned char  size(2) Largest target is 0

    I2C_Write2ByteRegister@data.data	PTR unsigned char  size(2) Largest target is 0

    I2C_DO_TX$2667$0	PTR void  size(2) Largest target is 5
		 -> I2C_ReadDataBlock@bufferBlock(COMRAM[4]), I2C_Write2ByteRegister@data(COMRAM[2]), I2C_Write1ByteRegister@data(COMRAM[1]), I2C_Read2ByteRegister@returnValue(COMRAM[2]), 
		 -> I2C_Read1ByteRegister@returnValue(COMRAM[1]), i2c_readDataBlock@d(COMRAM[4]), i2c_write2ByteRegister@data(COMRAM[2]), i2c_read2ByteRegister@result(COMRAM[2]), 
		 -> i2c_read1ByteRegister@d2(COMRAM[1]), i2c_write1ByteRegister@data(COMRAM[1]), NULL(NULL[0]), 

    I2C_DO_RX$2673$0	PTR void  size(2) Largest target is 5
		 -> I2C_ReadDataBlock@bufferBlock(COMRAM[4]), I2C_Write2ByteRegister@data(COMRAM[2]), I2C_Write1ByteRegister@data(COMRAM[1]), I2C_Read2ByteRegister@returnValue(COMRAM[2]), 
		 -> I2C_Read1ByteRegister@returnValue(COMRAM[1]), i2c_readDataBlock@d(COMRAM[4]), i2c_write2ByteRegister@data(COMRAM[2]), i2c_read2ByteRegister@result(COMRAM[2]), 
		 -> i2c_read1ByteRegister@d2(COMRAM[1]), i2c_write1ByteRegister@data(COMRAM[1]), NULL(NULL[0]), 

    I2C_DO_TX_EMPTY$2679$0	PTR void  size(2) Largest target is 5
		 -> I2C_ReadDataBlock@bufferBlock(COMRAM[4]), I2C_Write2ByteRegister@data(COMRAM[2]), I2C_Write1ByteRegister@data(COMRAM[1]), I2C_Read2ByteRegister@returnValue(COMRAM[2]), 
		 -> I2C_Read1ByteRegister@returnValue(COMRAM[1]), i2c_readDataBlock@d(COMRAM[4]), i2c_write2ByteRegister@data(COMRAM[2]), i2c_read2ByteRegister@result(COMRAM[2]), 
		 -> i2c_read1ByteRegister@d2(COMRAM[1]), i2c_write1ByteRegister@data(COMRAM[1]), NULL(NULL[0]), 

    I2C_DO_RX_EMPTY$2685$0	PTR void  size(2) Largest target is 5
		 -> I2C_ReadDataBlock@bufferBlock(COMRAM[4]), I2C_Write2ByteRegister@data(COMRAM[2]), I2C_Write1ByteRegister@data(COMRAM[1]), I2C_Read2ByteRegister@returnValue(COMRAM[2]), 
		 -> I2C_Read1ByteRegister@returnValue(COMRAM[1]), i2c_readDataBlock@d(COMRAM[4]), i2c_write2ByteRegister@data(COMRAM[2]), i2c_read2ByteRegister@result(COMRAM[2]), 
		 -> i2c_read1ByteRegister@d2(COMRAM[1]), i2c_write1ByteRegister@data(COMRAM[1]), NULL(NULL[0]), 

    I2C_DO_TX_EMPTY$2684	PTR void  size(2) Largest target is 5
		 -> I2C_ReadDataBlock@bufferBlock(COMRAM[4]), I2C_Write2ByteRegister@data(COMRAM[2]), I2C_Write1ByteRegister@data(COMRAM[1]), I2C_Read2ByteRegister@returnValue(COMRAM[2]), 
		 -> I2C_Read1ByteRegister@returnValue(COMRAM[1]), i2c_readDataBlock@d(COMRAM[4]), i2c_write2ByteRegister@data(COMRAM[2]), i2c_read2ByteRegister@result(COMRAM[2]), 
		 -> i2c_read1ByteRegister@d2(COMRAM[1]), i2c_write1ByteRegister@data(COMRAM[1]), NULL(NULL[0]), 

    I2C_DO_TX_EMPTY$2679	PTR FTN(PTR void ,)enum E360 size(2) Largest target is 1
		 -> I2C_CallbackReturnReset(), I2C_CallbackReturnStop(), Absolute function(), rdBlkRegCompleteHandler@i2c_master_example$F179(), 
		 -> wr2RegCompleteHandler@i2c_master_example$F168(), wr1RegCompleteHandler@i2c_master_example$F162(), rd2RegCompleteHandler@i2c_master_example$F156(), rd1RegCompleteHandler@i2c_master_example$F145(), 
		 -> rdBlkRegCompleteHandler(), wr2RegCompleteHandler(), rd2RegCompleteHandler(), rd1RegCompleteHandler(), 
		 -> wr1RegCompleteHandler(), 

    I2C_DO_RX$2678	PTR void  size(2) Largest target is 5
		 -> I2C_ReadDataBlock@bufferBlock(COMRAM[4]), I2C_Write2ByteRegister@data(COMRAM[2]), I2C_Write1ByteRegister@data(COMRAM[1]), I2C_Read2ByteRegister@returnValue(COMRAM[2]), 
		 -> I2C_Read1ByteRegister@returnValue(COMRAM[1]), i2c_readDataBlock@d(COMRAM[4]), i2c_write2ByteRegister@data(COMRAM[2]), i2c_read2ByteRegister@result(COMRAM[2]), 
		 -> i2c_read1ByteRegister@d2(COMRAM[1]), i2c_write1ByteRegister@data(COMRAM[1]), NULL(NULL[0]), 

    I2C_DO_RX$2673	PTR FTN(PTR void ,)enum E360 size(2) Largest target is 1
		 -> I2C_CallbackReturnReset(), I2C_CallbackReturnStop(), Absolute function(), rdBlkRegCompleteHandler@i2c_master_example$F179(), 
		 -> wr2RegCompleteHandler@i2c_master_example$F168(), wr1RegCompleteHandler@i2c_master_example$F162(), rd2RegCompleteHandler@i2c_master_example$F156(), rd1RegCompleteHandler@i2c_master_example$F145(), 
		 -> rdBlkRegCompleteHandler(), wr2RegCompleteHandler(), rd2RegCompleteHandler(), rd1RegCompleteHandler(), 
		 -> wr1RegCompleteHandler(), 

    I2C_DO_TX$2672	PTR void  size(2) Largest target is 5
		 -> I2C_ReadDataBlock@bufferBlock(COMRAM[4]), I2C_Write2ByteRegister@data(COMRAM[2]), I2C_Write1ByteRegister@data(COMRAM[1]), I2C_Read2ByteRegister@returnValue(COMRAM[2]), 
		 -> I2C_Read1ByteRegister@returnValue(COMRAM[1]), i2c_readDataBlock@d(COMRAM[4]), i2c_write2ByteRegister@data(COMRAM[2]), i2c_read2ByteRegister@result(COMRAM[2]), 
		 -> i2c_read1ByteRegister@d2(COMRAM[1]), i2c_write1ByteRegister@data(COMRAM[1]), NULL(NULL[0]), 

    I2C_DO_TX$2667	PTR FTN(PTR void ,)enum E360 size(2) Largest target is 1
		 -> I2C_CallbackReturnReset(), I2C_CallbackReturnStop(), Absolute function(), rdBlkRegCompleteHandler@i2c_master_example$F179(), 
		 -> wr2RegCompleteHandler@i2c_master_example$F168(), wr1RegCompleteHandler@i2c_master_example$F162(), rd2RegCompleteHandler@i2c_master_example$F156(), rd1RegCompleteHandler@i2c_master_example$F145(), 
		 -> rdBlkRegCompleteHandler(), wr2RegCompleteHandler(), rd2RegCompleteHandler(), rd1RegCompleteHandler(), 
		 -> wr1RegCompleteHandler(), 

    I2C_MasterFsm$2666	const PTR FTN()enum E12586 size(2) Largest target is 1
		 -> I2C_DO_ADDRESS_NACK(), I2C_DO_RESET(), I2C_DO_RX_NACK_RESTART(), I2C_DO_RX_NACK_STOP(), 
		 -> I2C_DO_RX_ACK(), I2C_DO_SEND_STOP(), I2C_DO_SEND_RESTART(), I2C_DO_SEND_RESTART_WRITE(), 
		 -> I2C_DO_SEND_RESTART_READ(), I2C_DO_TX_EMPTY(), I2C_DO_RCEN(), I2C_DO_RX(), 
		 -> I2C_DO_TX(), I2C_DO_SEND_ADR_WRITE(), I2C_DO_SEND_ADR_READ(), I2C_DO_IDLE(), 

    I2C_CallbackReturnStop@funPtr	PTR void  size(2) Largest target is 5
		 -> I2C_ReadDataBlock@bufferBlock(COMRAM[4]), I2C_Write2ByteRegister@data(COMRAM[2]), I2C_Write1ByteRegister@data(COMRAM[1]), I2C_Read2ByteRegister@returnValue(COMRAM[2]), 
		 -> I2C_Read1ByteRegister@returnValue(COMRAM[1]), i2c_readDataBlock@d(COMRAM[4]), i2c_write2ByteRegister@data(COMRAM[2]), i2c_read2ByteRegister@result(COMRAM[2]), 
		 -> i2c_read1ByteRegister@d2(COMRAM[1]), i2c_write1ByteRegister@data(COMRAM[1]), NULL(NULL[0]), 

    I2C_CallbackReturnReset@funPtr	PTR void  size(2) Largest target is 5
		 -> I2C_ReadDataBlock@bufferBlock(COMRAM[4]), I2C_Write2ByteRegister@data(COMRAM[2]), I2C_Write1ByteRegister@data(COMRAM[1]), I2C_Read2ByteRegister@returnValue(COMRAM[2]), 
		 -> I2C_Read1ByteRegister@returnValue(COMRAM[1]), i2c_readDataBlock@d(COMRAM[4]), i2c_write2ByteRegister@data(COMRAM[2]), i2c_read2ByteRegister@result(COMRAM[2]), 
		 -> i2c_read1ByteRegister@d2(COMRAM[1]), i2c_write1ByteRegister@data(COMRAM[1]), NULL(NULL[0]), 

    cb$0	PTR void  size(2) Largest target is 5
		 -> I2C_ReadDataBlock@bufferBlock(COMRAM[4]), I2C_Write2ByteRegister@data(COMRAM[2]), I2C_Write1ByteRegister@data(COMRAM[1]), I2C_Read2ByteRegister@returnValue(COMRAM[2]), 
		 -> I2C_Read1ByteRegister@returnValue(COMRAM[1]), i2c_readDataBlock@d(COMRAM[4]), i2c_write2ByteRegister@data(COMRAM[2]), i2c_read2ByteRegister@result(COMRAM[2]), 
		 -> i2c_read1ByteRegister@d2(COMRAM[1]), i2c_write1ByteRegister@data(COMRAM[1]), NULL(NULL[0]), 

    cb$0	PTR void  size(2) Largest target is 5
		 -> I2C_ReadDataBlock@bufferBlock(COMRAM[4]), I2C_Write2ByteRegister@data(COMRAM[2]), I2C_Write1ByteRegister@data(COMRAM[1]), I2C_Read2ByteRegister@returnValue(COMRAM[2]), 
		 -> I2C_Read1ByteRegister@returnValue(COMRAM[1]), i2c_readDataBlock@d(COMRAM[4]), i2c_write2ByteRegister@data(COMRAM[2]), i2c_read2ByteRegister@result(COMRAM[2]), 
		 -> i2c_read1ByteRegister@d2(COMRAM[1]), i2c_write1ByteRegister@data(COMRAM[1]), NULL(NULL[0]), 

    Absolute function$0	PTR void  size(2) Largest target is 5
		 -> I2C_ReadDataBlock@bufferBlock(COMRAM[4]), I2C_Write2ByteRegister@data(COMRAM[2]), I2C_Write1ByteRegister@data(COMRAM[1]), I2C_Read2ByteRegister@returnValue(COMRAM[2]), 
		 -> I2C_Read1ByteRegister@returnValue(COMRAM[1]), i2c_readDataBlock@d(COMRAM[4]), i2c_write2ByteRegister@data(COMRAM[2]), i2c_read2ByteRegister@result(COMRAM[2]), 
		 -> i2c_read1ByteRegister@d2(COMRAM[1]), i2c_write1ByteRegister@data(COMRAM[1]), NULL(NULL[0]), 

    S740$0$0	PTR void  size(2) Largest target is 5
		 -> I2C_ReadDataBlock@bufferBlock(COMRAM[4]), I2C_Write2ByteRegister@data(COMRAM[2]), I2C_Write1ByteRegister@data(COMRAM[1]), I2C_Read2ByteRegister@returnValue(COMRAM[2]), 
		 -> I2C_Read1ByteRegister@returnValue(COMRAM[1]), i2c_readDataBlock@d(COMRAM[4]), i2c_write2ByteRegister@data(COMRAM[2]), i2c_read2ByteRegister@result(COMRAM[2]), 
		 -> i2c_read1ByteRegister@d2(COMRAM[1]), i2c_write1ByteRegister@data(COMRAM[1]), NULL(NULL[0]), 

    CCP2_CallBack	PTR FTN(unsigned short ,)void  size(2) Largest target is 1
		 -> CCP2_DefaultCallBack(), Absolute function(), 

    EEPROM_Read@buffer	PTR unsigned char  size(2) Largest target is 3
		 -> main@message(COMRAM[3]), 

    LCD_Write@message	PTR unsigned char  size(2) Largest target is 3
		 -> main@message(COMRAM[3]), 

    EUSART1_RxDefaultInterruptHandler	PTR FTN()void  size(2) Largest target is 1
		 -> Absolute function(), 

    EUSART1_TxDefaultInterruptHandler	PTR FTN()void  size(2) Largest target is 1
		 -> Absolute function(), 

    I2C_SetCallback@ptr	PTR void  size(2) Largest target is 5
		 -> I2C_ReadDataBlock@bufferBlock(COMRAM[4]), I2C_Write2ByteRegister@data(COMRAM[2]), I2C_Write1ByteRegister@data(COMRAM[1]), I2C_Read2ByteRegister@returnValue(COMRAM[2]), 
		 -> I2C_Read1ByteRegister@returnValue(COMRAM[1]), i2c_readDataBlock@d(COMRAM[4]), i2c_write2ByteRegister@data(COMRAM[2]), i2c_read2ByteRegister@result(COMRAM[2]), 
		 -> i2c_read1ByteRegister@d2(COMRAM[1]), i2c_write1ByteRegister@data(COMRAM[1]), NULL(NULL[0]), 

    I2C_SetCallback@cb	PTR FTN(PTR void ,)enum E360 size(2) Largest target is 1
		 -> Absolute function(), rdBlkRegCompleteHandler@i2c_master_example$F179(), wr2RegCompleteHandler@i2c_master_example$F168(), wr1RegCompleteHandler@i2c_master_example$F162(), 
		 -> rd2RegCompleteHandler@i2c_master_example$F156(), rd1RegCompleteHandler@i2c_master_example$F145(), rdBlkRegCompleteHandler(), wr2RegCompleteHandler(), 
		 -> rd2RegCompleteHandler(), rd1RegCompleteHandler(), wr1RegCompleteHandler(), 

    I2C_SetDataCompleteCallback@ptr	PTR void  size(2) Largest target is 5
		 -> I2C_ReadDataBlock@bufferBlock(COMRAM[4]), I2C_Write2ByteRegister@data(COMRAM[2]), I2C_Write1ByteRegister@data(COMRAM[1]), I2C_Read2ByteRegister@returnValue(COMRAM[2]), 
		 -> I2C_Read1ByteRegister@returnValue(COMRAM[1]), i2c_readDataBlock@d(COMRAM[4]), i2c_write2ByteRegister@data(COMRAM[2]), i2c_read2ByteRegister@result(COMRAM[2]), 
		 -> i2c_read1ByteRegister@d2(COMRAM[1]), i2c_write1ByteRegister@data(COMRAM[1]), NULL(NULL[0]), 

    I2C_SetDataCompleteCallback@cb	PTR FTN(PTR void ,)enum E360 size(2) Largest target is 1
		 -> Absolute function(), rdBlkRegCompleteHandler@i2c_master_example$F179(), wr2RegCompleteHandler@i2c_master_example$F168(), wr1RegCompleteHandler@i2c_master_example$F162(), 
		 -> rd2RegCompleteHandler@i2c_master_example$F156(), rd1RegCompleteHandler@i2c_master_example$F145(), rdBlkRegCompleteHandler(), wr2RegCompleteHandler(), 
		 -> rd2RegCompleteHandler(), rd1RegCompleteHandler(), wr1RegCompleteHandler(), 

    I2C_SetBuffer@buffer	PTR void  size(2) Largest target is 5
		 -> i2c_write1ByteRegister@data.data(COMRAM[3]), i2c_read1ByteRegister@d2.data(COMRAM[3]), i2c_read2ByteRegister@result.data(COMRAM[3]), i2c_write2ByteRegister@data.data(COMRAM[3]), 
		 -> I2C_Read1ByteRegister@returnValue.data(COMRAM[3]), I2C_Read2ByteRegister@returnValue.data(COMRAM[3]), I2C_Write1ByteRegister@data.data(COMRAM[3]), I2C_Write2ByteRegister@data.data(COMRAM[3]), 
		 -> main@message(COMRAM[3]), EEPROM_Read@addrBuffer(COMRAM[2]), EEPROM_Write@buffer(COMRAM[3]), I2C_ReadDataBlock@reg(COMRAM[1]), 
		 -> I2C_ReadDataBlock@bufferBlock(COMRAM[4]), bufferBlock.data(COMRAM[3]), I2C_Write2ByteRegister@reg(COMRAM[1]), I2C_Write2ByteRegister@data(COMRAM[2]), 
		 -> I2C_Write1ByteRegister@reg(COMRAM[1]), I2C_Write1ByteRegister@data(COMRAM[1]), I2C_Read2ByteRegister@reg(COMRAM[1]), I2C_Read2ByteRegister@returnValue(COMRAM[2]), 
		 -> I2C_Read1ByteRegister@reg(COMRAM[1]), I2C_Read1ByteRegister@returnValue(COMRAM[1]), i2c_readDataBlock@reg(COMRAM[1]), i2c_readDataBlock@d(COMRAM[4]), 
		 -> d.data(COMRAM[3]), i2c_write2ByteRegister@reg(COMRAM[1]), i2c_write2ByteRegister@data(COMRAM[2]), i2c_read2ByteRegister@reg(COMRAM[1]), 
		 -> i2c_read2ByteRegister@result(COMRAM[2]), i2c_read1ByteRegister@reg(COMRAM[1]), i2c_read1ByteRegister@d2(COMRAM[1]), i2c_write1ByteRegister@reg(COMRAM[1]), 
		 -> i2c_write1ByteRegister@data(COMRAM[1]), NULL(NULL[0]), 

    S740$data_ptr	PTR unsigned char  size(2) Largest target is 5
		 -> main@message(COMRAM[3]), EEPROM_Read@addrBuffer(COMRAM[2]), EEPROM_Write@buffer(COMRAM[3]), I2C_ReadDataBlock@reg(COMRAM[1]), 
		 -> I2C_ReadDataBlock@bufferBlock(COMRAM[4]), I2C_Write2ByteRegister@reg(COMRAM[1]), I2C_Write2ByteRegister@data(COMRAM[2]), I2C_Write1ByteRegister@reg(COMRAM[1]), 
		 -> I2C_Write1ByteRegister@data(COMRAM[1]), I2C_Read2ByteRegister@reg(COMRAM[1]), I2C_Read2ByteRegister@returnValue(COMRAM[2]), I2C_Read1ByteRegister@reg(COMRAM[1]), 
		 -> I2C_Read1ByteRegister@returnValue(COMRAM[1]), i2c_readDataBlock@reg(COMRAM[1]), i2c_readDataBlock@d(COMRAM[4]), i2c_write2ByteRegister@reg(COMRAM[1]), 
		 -> i2c_write2ByteRegister@data(COMRAM[2]), i2c_read2ByteRegister@reg(COMRAM[1]), i2c_read2ByteRegister@result(COMRAM[2]), i2c_read1ByteRegister@reg(COMRAM[1]), 
		 -> i2c_read1ByteRegister@d2(COMRAM[1]), i2c_write1ByteRegister@reg(COMRAM[1]), i2c_write1ByteRegister@data(COMRAM[1]), NULL(NULL[0]), 

    I2C_Status.data_ptr	PTR unsigned char  size(2) Largest target is 5
		 -> i2c_write1ByteRegister@data.data(COMRAM[3]), i2c_read1ByteRegister@d2.data(COMRAM[3]), i2c_read2ByteRegister@result.data(COMRAM[3]), i2c_write2ByteRegister@data.data(COMRAM[3]), 
		 -> I2C_Read1ByteRegister@returnValue.data(COMRAM[3]), I2C_Read2ByteRegister@returnValue.data(COMRAM[3]), I2C_Write1ByteRegister@data.data(COMRAM[3]), I2C_Write2ByteRegister@data.data(COMRAM[3]), 
		 -> main@message(COMRAM[3]), EEPROM_Read@addrBuffer(COMRAM[2]), EEPROM_Write@buffer(COMRAM[3]), I2C_ReadDataBlock@reg(COMRAM[1]), 
		 -> I2C_ReadDataBlock@bufferBlock(COMRAM[4]), bufferBlock.data(COMRAM[3]), I2C_Write2ByteRegister@reg(COMRAM[1]), I2C_Write2ByteRegister@data(COMRAM[2]), 
		 -> I2C_Write1ByteRegister@reg(COMRAM[1]), I2C_Write1ByteRegister@data(COMRAM[1]), I2C_Read2ByteRegister@reg(COMRAM[1]), I2C_Read2ByteRegister@returnValue(COMRAM[2]), 
		 -> I2C_Read1ByteRegister@reg(COMRAM[1]), I2C_Read1ByteRegister@returnValue(COMRAM[1]), i2c_readDataBlock@reg(COMRAM[1]), i2c_readDataBlock@d(COMRAM[4]), 
		 -> d.data(COMRAM[3]), i2c_write2ByteRegister@reg(COMRAM[1]), i2c_write2ByteRegister@data(COMRAM[2]), i2c_read2ByteRegister@reg(COMRAM[1]), 
		 -> i2c_read2ByteRegister@result(COMRAM[2]), i2c_read1ByteRegister@reg(COMRAM[1]), i2c_read1ByteRegister@d2(COMRAM[1]), i2c_write1ByteRegister@reg(COMRAM[1]), 
		 -> i2c_write1ByteRegister@data(COMRAM[1]), NULL(NULL[0]), 

    S740$callbackPayload	PTR void [6] size(2) Largest target is 5
		 -> I2C_ReadDataBlock@bufferBlock(COMRAM[4]), I2C_Write2ByteRegister@data(COMRAM[2]), I2C_Write1ByteRegister@data(COMRAM[1]), I2C_Read2ByteRegister@returnValue(COMRAM[2]), 
		 -> I2C_Read1ByteRegister@returnValue(COMRAM[1]), i2c_readDataBlock@d(COMRAM[4]), i2c_write2ByteRegister@data(COMRAM[2]), i2c_read2ByteRegister@result(COMRAM[2]), 
		 -> i2c_read1ByteRegister@d2(COMRAM[1]), i2c_write1ByteRegister@data(COMRAM[1]), NULL(NULL[0]), 

    I2C_Status.callbackPayload	PTR void [6] size(2) Largest target is 5
		 -> I2C_ReadDataBlock@bufferBlock(COMRAM[4]), I2C_Write2ByteRegister@data(COMRAM[2]), I2C_Write1ByteRegister@data(COMRAM[1]), I2C_Read2ByteRegister@returnValue(COMRAM[2]), 
		 -> I2C_Read1ByteRegister@returnValue(COMRAM[1]), i2c_readDataBlock@d(COMRAM[4]), i2c_write2ByteRegister@data(COMRAM[2]), i2c_read2ByteRegister@result(COMRAM[2]), 
		 -> i2c_read1ByteRegister@d2(COMRAM[1]), i2c_write1ByteRegister@data(COMRAM[1]), NULL(NULL[0]), 

    S740$callbackTable	PTR FTN(PTR void ,)enum E360[6] size(2) Largest target is 1
		 -> I2C_CallbackReturnReset(), I2C_CallbackReturnStop(), Absolute function(), rdBlkRegCompleteHandler@i2c_master_example$F179(), 
		 -> wr2RegCompleteHandler@i2c_master_example$F168(), wr1RegCompleteHandler@i2c_master_example$F162(), rd2RegCompleteHandler@i2c_master_example$F156(), rd1RegCompleteHandler@i2c_master_example$F145(), 
		 -> rdBlkRegCompleteHandler(), wr2RegCompleteHandler(), rd2RegCompleteHandler(), rd1RegCompleteHandler(), 
		 -> wr1RegCompleteHandler(), 

    I2C_Status.callbackTable	PTR FTN(PTR void ,)enum E360[6] size(2) Largest target is 1
		 -> I2C_CallbackReturnReset(), I2C_CallbackReturnStop(), Absolute function(), rdBlkRegCompleteHandler@i2c_master_example$F179(), 
		 -> wr2RegCompleteHandler@i2c_master_example$F168(), wr1RegCompleteHandler@i2c_master_example$F162(), rd2RegCompleteHandler@i2c_master_example$F156(), rd1RegCompleteHandler@i2c_master_example$F145(), 
		 -> rdBlkRegCompleteHandler(), wr2RegCompleteHandler(), rd2RegCompleteHandler(), rd1RegCompleteHandler(), 
		 -> wr1RegCompleteHandler(), 

    i2c_fsmStateTable	const PTR FTN()enum E12586[16] size(2) Largest target is 1
		 -> I2C_DO_ADDRESS_NACK(), I2C_DO_RESET(), I2C_DO_RX_NACK_RESTART(), I2C_DO_RX_NACK_STOP(), 
		 -> I2C_DO_RX_ACK(), I2C_DO_SEND_STOP(), I2C_DO_SEND_RESTART(), I2C_DO_SEND_RESTART_WRITE(), 
		 -> I2C_DO_SEND_RESTART_READ(), I2C_DO_TX_EMPTY(), I2C_DO_RCEN(), I2C_DO_RX(), 
		 -> I2C_DO_TX(), I2C_DO_SEND_ADR_WRITE(), I2C_DO_SEND_ADR_READ(), I2C_DO_IDLE(), 

    EUSART1_SetErrorHandler@interruptHandler	PTR FTN()void  size(2) Largest target is 1
		 -> EUSART1_DefaultErrorHandler(), 

    EUSART1_ErrorHandler	PTR FTN()void  size(2) Largest target is 1
		 -> Absolute function(), EUSART1_DefaultErrorHandler(), 

    EUSART1_SetOverrunErrorHandler@interruptHandler	PTR FTN()void  size(2) Largest target is 1
		 -> EUSART1_DefaultOverrunErrorHandler(), 

    EUSART1_OverrunErrorHandler	PTR FTN()void  size(2) Largest target is 1
		 -> Absolute function(), EUSART1_DefaultOverrunErrorHandler(), 

    EUSART1_SetFramingErrorHandler@interruptHandler	PTR FTN()void  size(2) Largest target is 1
		 -> EUSART1_DefaultFramingErrorHandler(), 

    EUSART1_FramingErrorHandler	PTR FTN()void  size(2) Largest target is 1
		 -> Absolute function(), EUSART1_DefaultFramingErrorHandler(), 

    rdBlkRegCompleteHandler@i2c_master_example$F179@ptr.data	PTR unsigned char  size(2) Largest target is 0

    rdBlkRegCompleteHandler@i2c_master_example$F179@ptr	PTR void  size(2) Largest target is 5
		 -> I2C_ReadDataBlock@bufferBlock(COMRAM[4]), I2C_Write2ByteRegister@data(COMRAM[2]), I2C_Write1ByteRegister@data(COMRAM[1]), I2C_Read2ByteRegister@returnValue(COMRAM[2]), 
		 -> I2C_Read1ByteRegister@returnValue(COMRAM[1]), i2c_readDataBlock@d(COMRAM[4]), i2c_write2ByteRegister@data(COMRAM[2]), i2c_read2ByteRegister@result(COMRAM[2]), 
		 -> i2c_read1ByteRegister@d2(COMRAM[1]), i2c_write1ByteRegister@data(COMRAM[1]), NULL(NULL[0]), 

    wr2RegCompleteHandler@i2c_master_example$F168@ptr	PTR void  size(2) Largest target is 5
		 -> I2C_ReadDataBlock@bufferBlock(COMRAM[4]), I2C_Write2ByteRegister@data(COMRAM[2]), I2C_Write1ByteRegister@data(COMRAM[1]), I2C_Read2ByteRegister@returnValue(COMRAM[2]), 
		 -> I2C_Read1ByteRegister@returnValue(COMRAM[1]), i2c_readDataBlock@d(COMRAM[4]), i2c_write2ByteRegister@data(COMRAM[2]), i2c_read2ByteRegister@result(COMRAM[2]), 
		 -> i2c_read1ByteRegister@d2(COMRAM[1]), i2c_write1ByteRegister@data(COMRAM[1]), NULL(NULL[0]), 

    wr1RegCompleteHandler@i2c_master_example$F162@ptr	PTR void  size(2) Largest target is 5
		 -> I2C_ReadDataBlock@bufferBlock(COMRAM[4]), I2C_Write2ByteRegister@data(COMRAM[2]), I2C_Write1ByteRegister@data(COMRAM[1]), I2C_Read2ByteRegister@returnValue(COMRAM[2]), 
		 -> I2C_Read1ByteRegister@returnValue(COMRAM[1]), i2c_readDataBlock@d(COMRAM[4]), i2c_write2ByteRegister@data(COMRAM[2]), i2c_read2ByteRegister@result(COMRAM[2]), 
		 -> i2c_read1ByteRegister@d2(COMRAM[1]), i2c_write1ByteRegister@data(COMRAM[1]), NULL(NULL[0]), 

    rd2RegCompleteHandler@i2c_master_example$F156@ptr	PTR void  size(2) Largest target is 5
		 -> I2C_ReadDataBlock@bufferBlock(COMRAM[4]), I2C_Write2ByteRegister@data(COMRAM[2]), I2C_Write1ByteRegister@data(COMRAM[1]), I2C_Read2ByteRegister@returnValue(COMRAM[2]), 
		 -> I2C_Read1ByteRegister@returnValue(COMRAM[1]), i2c_readDataBlock@d(COMRAM[4]), i2c_write2ByteRegister@data(COMRAM[2]), i2c_read2ByteRegister@result(COMRAM[2]), 
		 -> i2c_read1ByteRegister@d2(COMRAM[1]), i2c_write1ByteRegister@data(COMRAM[1]), NULL(NULL[0]), 

    rd1RegCompleteHandler@i2c_master_example$F145@ptr	PTR void  size(2) Largest target is 5
		 -> I2C_ReadDataBlock@bufferBlock(COMRAM[4]), I2C_Write2ByteRegister@data(COMRAM[2]), I2C_Write1ByteRegister@data(COMRAM[1]), I2C_Read2ByteRegister@returnValue(COMRAM[2]), 
		 -> I2C_Read1ByteRegister@returnValue(COMRAM[1]), i2c_readDataBlock@d(COMRAM[4]), i2c_write2ByteRegister@data(COMRAM[2]), i2c_read2ByteRegister@result(COMRAM[2]), 
		 -> i2c_read1ByteRegister@d2(COMRAM[1]), i2c_write1ByteRegister@data(COMRAM[1]), NULL(NULL[0]), 

    bufferBlock.data	PTR unsigned char  size(2) Largest target is 0

    d.data	PTR unsigned char  size(2) Largest target is 0

    S76$data	PTR unsigned char  size(2) Largest target is 0

    rdBlkRegCompleteHandler@p.data	PTR unsigned char  size(2) Largest target is 0

    rdBlkRegCompleteHandler@p	PTR void  size(2) Largest target is 5
		 -> I2C_ReadDataBlock@bufferBlock(COMRAM[4]), I2C_Write2ByteRegister@data(COMRAM[2]), I2C_Write1ByteRegister@data(COMRAM[1]), I2C_Read2ByteRegister@returnValue(COMRAM[2]), 
		 -> I2C_Read1ByteRegister@returnValue(COMRAM[1]), i2c_readDataBlock@d(COMRAM[4]), i2c_write2ByteRegister@data(COMRAM[2]), i2c_read2ByteRegister@result(COMRAM[2]), 
		 -> i2c_read1ByteRegister@d2(COMRAM[1]), i2c_write1ByteRegister@data(COMRAM[1]), NULL(NULL[0]), 

    wr2RegCompleteHandler@p	PTR void  size(2) Largest target is 5
		 -> I2C_ReadDataBlock@bufferBlock(COMRAM[4]), I2C_Write2ByteRegister@data(COMRAM[2]), I2C_Write1ByteRegister@data(COMRAM[1]), I2C_Read2ByteRegister@returnValue(COMRAM[2]), 
		 -> I2C_Read1ByteRegister@returnValue(COMRAM[1]), i2c_readDataBlock@d(COMRAM[4]), i2c_write2ByteRegister@data(COMRAM[2]), i2c_read2ByteRegister@result(COMRAM[2]), 
		 -> i2c_read1ByteRegister@d2(COMRAM[1]), i2c_write1ByteRegister@data(COMRAM[1]), NULL(NULL[0]), 

    rd2RegCompleteHandler@p	PTR void  size(2) Largest target is 5
		 -> I2C_ReadDataBlock@bufferBlock(COMRAM[4]), I2C_Write2ByteRegister@data(COMRAM[2]), I2C_Write1ByteRegister@data(COMRAM[1]), I2C_Read2ByteRegister@returnValue(COMRAM[2]), 
		 -> I2C_Read1ByteRegister@returnValue(COMRAM[1]), i2c_readDataBlock@d(COMRAM[4]), i2c_write2ByteRegister@data(COMRAM[2]), i2c_read2ByteRegister@result(COMRAM[2]), 
		 -> i2c_read1ByteRegister@d2(COMRAM[1]), i2c_write1ByteRegister@data(COMRAM[1]), NULL(NULL[0]), 

    rd1RegCompleteHandler@p	PTR void  size(2) Largest target is 5
		 -> I2C_ReadDataBlock@bufferBlock(COMRAM[4]), I2C_Write2ByteRegister@data(COMRAM[2]), I2C_Write1ByteRegister@data(COMRAM[1]), I2C_Read2ByteRegister@returnValue(COMRAM[2]), 
		 -> I2C_Read1ByteRegister@returnValue(COMRAM[1]), i2c_readDataBlock@d(COMRAM[4]), i2c_write2ByteRegister@data(COMRAM[2]), i2c_read2ByteRegister@result(COMRAM[2]), 
		 -> i2c_read1ByteRegister@d2(COMRAM[1]), i2c_write1ByteRegister@data(COMRAM[1]), NULL(NULL[0]), 

    wr1RegCompleteHandler@p	PTR void  size(2) Largest target is 5
		 -> I2C_ReadDataBlock@bufferBlock(COMRAM[4]), I2C_Write2ByteRegister@data(COMRAM[2]), I2C_Write1ByteRegister@data(COMRAM[1]), I2C_Read2ByteRegister@returnValue(COMRAM[2]), 
		 -> I2C_Read1ByteRegister@returnValue(COMRAM[1]), i2c_readDataBlock@d(COMRAM[4]), i2c_write2ByteRegister@data(COMRAM[2]), i2c_read2ByteRegister@result(COMRAM[2]), 
		 -> i2c_read1ByteRegister@d2(COMRAM[1]), i2c_write1ByteRegister@data(COMRAM[1]), NULL(NULL[0]), 


Critical Paths under _main in COMRAM

    _main->_EEPROM_Read
    _EUSART1_Initialize->_EUSART1_SetErrorHandler
    _EUSART1_Initialize->_EUSART1_SetFramingErrorHandler
    _EUSART1_Initialize->_EUSART1_SetOverrunErrorHandler
    _LCD_Write->_I2C_MasterOperation
    _LCD_Clear->_EUSART1_Write
    _EEPROM_Write->_I2C_MasterOperation
    _EEPROM_Read->_I2C_MasterOperation
    _I2C_MasterFsm->_I2C_DO_ADDRESS_NACK
    _I2C_MasterFsm->_I2C_DO_RX
    _I2C_MasterFsm->_I2C_DO_TX
    _I2C_MasterFsm->_I2C_DO_TX_EMPTY
    _I2C_DO_TX_EMPTY->_I2C_CallbackReturnReset
    _I2C_DO_TX_EMPTY->_I2C_CallbackReturnStop
    _I2C_DO_TX_EMPTY->_rd1RegCompleteHandler
    _I2C_DO_TX_EMPTY->_rd1RegCompleteHandler@i2c_master_example$F145
    _I2C_DO_TX_EMPTY->_rd2RegCompleteHandler
    _I2C_DO_TX_EMPTY->_rd2RegCompleteHandler@i2c_master_example$F156
    _I2C_DO_TX_EMPTY->_rdBlkRegCompleteHandler
    _I2C_DO_TX_EMPTY->_rdBlkRegCompleteHandler@i2c_master_example$F179
    _I2C_DO_TX_EMPTY->_wr1RegCompleteHandler
    _I2C_DO_TX_EMPTY->_wr1RegCompleteHandler@i2c_master_example$F162
    _I2C_DO_TX_EMPTY->_wr2RegCompleteHandler
    _I2C_DO_TX_EMPTY->_wr2RegCompleteHandler@i2c_master_example$F168
    _I2C_DO_TX->_I2C_CallbackReturnReset
    _I2C_DO_TX->_I2C_CallbackReturnStop
    _I2C_DO_TX->_rd1RegCompleteHandler
    _I2C_DO_TX->_rd1RegCompleteHandler@i2c_master_example$F145
    _I2C_DO_TX->_rd2RegCompleteHandler
    _I2C_DO_TX->_rd2RegCompleteHandler@i2c_master_example$F156
    _I2C_DO_TX->_rdBlkRegCompleteHandler
    _I2C_DO_TX->_rdBlkRegCompleteHandler@i2c_master_example$F179
    _I2C_DO_TX->_wr1RegCompleteHandler
    _I2C_DO_TX->_wr1RegCompleteHandler@i2c_master_example$F162
    _I2C_DO_TX->_wr2RegCompleteHandler
    _I2C_DO_TX->_wr2RegCompleteHandler@i2c_master_example$F168
    _I2C_DO_SEND_ADR_WRITE->_I2C_MasterSendTxData
    _I2C_DO_RX->_I2C_CallbackReturnReset
    _I2C_DO_RX->_I2C_CallbackReturnStop
    _I2C_DO_RX->_rd1RegCompleteHandler
    _I2C_DO_RX->_rd1RegCompleteHandler@i2c_master_example$F145
    _I2C_DO_RX->_rd2RegCompleteHandler
    _I2C_DO_RX->_rd2RegCompleteHandler@i2c_master_example$F156
    _I2C_DO_RX->_rdBlkRegCompleteHandler
    _I2C_DO_RX->_rdBlkRegCompleteHandler@i2c_master_example$F179
    _I2C_DO_RX->_wr1RegCompleteHandler
    _I2C_DO_RX->_wr1RegCompleteHandler@i2c_master_example$F162
    _I2C_DO_RX->_wr2RegCompleteHandler
    _I2C_DO_RX->_wr2RegCompleteHandler@i2c_master_example$F168
    _I2C_DO_ADDRESS_NACK->_I2C_CallbackReturnReset
    _I2C_DO_ADDRESS_NACK->_I2C_CallbackReturnStop
    _I2C_DO_ADDRESS_NACK->_rd1RegCompleteHandler
    _I2C_DO_ADDRESS_NACK->_rd1RegCompleteHandler@i2c_master_example$F145
    _I2C_DO_ADDRESS_NACK->_rd2RegCompleteHandler
    _I2C_DO_ADDRESS_NACK->_rd2RegCompleteHandler@i2c_master_example$F156
    _I2C_DO_ADDRESS_NACK->_rdBlkRegCompleteHandler
    _I2C_DO_ADDRESS_NACK->_rdBlkRegCompleteHandler@i2c_master_example$F179
    _I2C_DO_ADDRESS_NACK->_wr1RegCompleteHandler
    _I2C_DO_ADDRESS_NACK->_wr1RegCompleteHandler@i2c_master_example$F162
    _I2C_DO_ADDRESS_NACK->_wr2RegCompleteHandler
    _I2C_DO_ADDRESS_NACK->_wr2RegCompleteHandler@i2c_master_example$F168
    _wr2RegCompleteHandler@i2c_master_example$F168->_I2C_SetDataCompleteCallback
    _wr2RegCompleteHandler->_I2C_SetDataCompleteCallback
    _wr1RegCompleteHandler@i2c_master_example$F162->_I2C_SetDataCompleteCallback
    _wr1RegCompleteHandler->_I2C_SetDataCompleteCallback
    _rdBlkRegCompleteHandler@i2c_master_example$F179->_I2C_SetDataCompleteCallback
    _rdBlkRegCompleteHandler->_I2C_SetDataCompleteCallback
    _rd2RegCompleteHandler@i2c_master_example$F156->_I2C_SetDataCompleteCallback
    _rd2RegCompleteHandler->_I2C_SetDataCompleteCallback
    _rd1RegCompleteHandler@i2c_master_example$F145->_I2C_SetDataCompleteCallback
    _rd1RegCompleteHandler->_I2C_SetDataCompleteCallback
    _I2C_SetDataCompleteCallback->_I2C_SetCallback

Critical Paths under _INTERRUPT_InterruptManager in COMRAM

    None.

Critical Paths under _main in BANK0

    None.

Critical Paths under _INTERRUPT_InterruptManager in BANK0

    None.

Critical Paths under _main in BANK1

    None.

Critical Paths under _INTERRUPT_InterruptManager in BANK1

    None.

Critical Paths under _main in BANK2

    None.

Critical Paths under _INTERRUPT_InterruptManager in BANK2

    None.

Critical Paths under _main in BANK3

    None.

Critical Paths under _INTERRUPT_InterruptManager in BANK3

    None.

Critical Paths under _main in BANK4

    None.

Critical Paths under _INTERRUPT_InterruptManager in BANK4

    None.

Critical Paths under _main in BANK5

    None.

Critical Paths under _INTERRUPT_InterruptManager in BANK5

    None.

Critical Paths under _main in BANK6

    None.

Critical Paths under _INTERRUPT_InterruptManager in BANK6

    None.

Critical Paths under _main in BANK7

    None.

Critical Paths under _INTERRUPT_InterruptManager in BANK7

    None.

Critical Paths under _main in BANK8

    None.

Critical Paths under _INTERRUPT_InterruptManager in BANK8

    None.

Critical Paths under _main in BANK9

    None.

Critical Paths under _INTERRUPT_InterruptManager in BANK9

    None.

Critical Paths under _main in BANK10

    None.

Critical Paths under _INTERRUPT_InterruptManager in BANK10

    None.

Critical Paths under _main in BANK11

    None.

Critical Paths under _INTERRUPT_InterruptManager in BANK11

    None.

Critical Paths under _main in BANK12

    None.

Critical Paths under _INTERRUPT_InterruptManager in BANK12

    None.

Critical Paths under _main in BANK13

    None.

Critical Paths under _INTERRUPT_InterruptManager in BANK13

    None.

Critical Paths under _main in BANK14

    None.

Critical Paths under _INTERRUPT_InterruptManager in BANK14

    None.

Call Graph Tables:

 ---------------------------------------------------------------------------------
 (Depth) Function   	        Calls       Base Space   Used Autos Params    Refs
 ---------------------------------------------------------------------------------
 (0) _main                                                 3     3      0 1016401
                                             23 COMRAM     3     3      0
                        _EEPROM_Read
                       _EEPROM_Write
                          _LCD_Clear
                          _LCD_Write
                  _SYSTEM_Initialize
 ---------------------------------------------------------------------------------
 (1) _SYSTEM_Initialize                                    0     0      0     294
                 _EUSART1_Initialize
              _OSCILLATOR_Initialize
             _PIN_MANAGER_Initialize
 ---------------------------------------------------------------------------------
 (2) _PIN_MANAGER_Initialize                               0     0      0       0
 ---------------------------------------------------------------------------------
 (2) _OSCILLATOR_Initialize                                0     0      0       0
 ---------------------------------------------------------------------------------
 (2) _EUSART1_Initialize                                   0     0      0     294
            _EUSART1_SetErrorHandler
     _EUSART1_SetFramingErrorHandler
     _EUSART1_SetOverrunErrorHandler
 ---------------------------------------------------------------------------------
 (3) _EUSART1_SetOverrunErrorHandler                       2     0      2      98
                                              0 COMRAM     2     0      2
 ---------------------------------------------------------------------------------
 (3) _EUSART1_SetFramingErrorHandler                       2     0      2      98
                                              0 COMRAM     2     0      2
 ---------------------------------------------------------------------------------
 (3) _EUSART1_SetErrorHandler                              2     0      2      98
                                              0 COMRAM     2     0      2
 ---------------------------------------------------------------------------------
 (1) _LCD_Write                                            5     2      3  338468
                                             15 COMRAM     5     2      3
                          _I2C_Close
                _I2C_MasterOperation
                           _I2C_Open
                      _I2C_SetBuffer
 ---------------------------------------------------------------------------------
 (1) _LCD_Clear                                            0     0      0      15
                      _EUSART1_Write
 ---------------------------------------------------------------------------------
 (2) _EUSART1_Write                                        1     1      0      15
                                              0 COMRAM     1     1      0
 ---------------------------------------------------------------------------------
 (1) _EEPROM_Write                                         7     4      3  338869
                                             15 COMRAM     7     4      3
                          _I2C_Close
                _I2C_MasterOperation
                           _I2C_Open
                      _I2C_SetBuffer
 ---------------------------------------------------------------------------------
 (1) _EEPROM_Read                                          8     3      5  338639
                                             15 COMRAM     8     3      5
                          _I2C_Close
                _I2C_MasterOperation
                           _I2C_Open
                      _I2C_SetBuffer
 ---------------------------------------------------------------------------------
 (2) _I2C_Open                                             2     2      0      30
                                              0 COMRAM     2     2      0
                 _I2C_MasterClearIrq
                     _I2C_MasterOpen
 ---------------------------------------------------------------------------------
 (3) _I2C_MasterOpen                                       0     0      0       0
 ---------------------------------------------------------------------------------
 (2) _I2C_MasterOperation                                  2     2      0  333927
                                             13 COMRAM     2     2      0
                    _I2C_MasterStart
                         _I2C_Poller
 ---------------------------------------------------------------------------------
 (3) _I2C_Poller                                           0     0      0  333881
                      _I2C_MasterFsm
             _I2C_MasterWaitForEvent
 ---------------------------------------------------------------------------------
 (4) _I2C_MasterWaitForEvent                               0     0      0       0
 ---------------------------------------------------------------------------------
 (4) _I2C_MasterFsm                                        0     0      0  333881
                _I2C_DO_ADDRESS_NACK *
                        _I2C_DO_IDLE *
                        _I2C_DO_RCEN *
                       _I2C_DO_RESET *
                          _I2C_DO_RX *
                      _I2C_DO_RX_ACK *
             _I2C_DO_RX_NACK_RESTART *
                _I2C_DO_RX_NACK_STOP *
               _I2C_DO_SEND_ADR_READ *
              _I2C_DO_SEND_ADR_WRITE *
                _I2C_DO_SEND_RESTART *
           _I2C_DO_SEND_RESTART_READ *
          _I2C_DO_SEND_RESTART_WRITE *
                   _I2C_DO_SEND_STOP *
                          _I2C_DO_TX *
                    _I2C_DO_TX_EMPTY *
                 _I2C_MasterClearIrq
                   _I2C_MasterIsNack
 ---------------------------------------------------------------------------------
 (5) _I2C_DO_TX_EMPTY                                      2     2      0   83459
                                             11 COMRAM     2     2      0
                   Absolute function *
            _I2C_CallbackReturnReset *
             _I2C_CallbackReturnStop *
                _I2C_DO_SEND_RESTART
                   _I2C_DO_SEND_STOP
                   _I2C_MasterSetIrq
              _rd1RegCompleteHandler *
_rd1RegCompleteHandler@i2c_master_ex *
              _rd2RegCompleteHandler *
_rd2RegCompleteHandler@i2c_master_ex *
            _rdBlkRegCompleteHandler *
_rdBlkRegCompleteHandler@i2c_master_ *
              _wr1RegCompleteHandler *
_wr1RegCompleteHandler@i2c_master_ex *
              _wr2RegCompleteHandler *
_wr2RegCompleteHandler@i2c_master_ex *
 ---------------------------------------------------------------------------------
 (6) _I2C_MasterSetIrq                                     0     0      0       0
 ---------------------------------------------------------------------------------
 (5) _I2C_DO_TX                                            2     2      0   83474
                                             11 COMRAM     2     2      0
                   Absolute function *
            _I2C_CallbackReturnReset *
             _I2C_CallbackReturnStop *
           _I2C_DO_SEND_RESTART_READ
          _I2C_DO_SEND_RESTART_WRITE
                   _I2C_DO_SEND_STOP
                   _I2C_MasterIsNack
               _I2C_MasterSendTxData
              _rd1RegCompleteHandler *
_rd1RegCompleteHandler@i2c_master_ex *
              _rd2RegCompleteHandler *
_rd2RegCompleteHandler@i2c_master_ex *
            _rdBlkRegCompleteHandler *
_rdBlkRegCompleteHandler@i2c_master_ *
              _wr1RegCompleteHandler *
_wr1RegCompleteHandler@i2c_master_ex *
              _wr2RegCompleteHandler *
_wr2RegCompleteHandler@i2c_master_ex *
 ---------------------------------------------------------------------------------
 (5) _I2C_MasterIsNack                                     0     0      0       0
 ---------------------------------------------------------------------------------
 (6) _I2C_DO_SEND_RESTART_WRITE                            0     0      0       0
            _I2C_MasterEnableRestart
 ---------------------------------------------------------------------------------
 (6) _I2C_DO_SEND_RESTART_READ                             0     0      0       0
            _I2C_MasterEnableRestart
 ---------------------------------------------------------------------------------
 (5) _I2C_DO_SEND_ADR_WRITE                                0     0      0      15
               _I2C_MasterSendTxData
 ---------------------------------------------------------------------------------
 (5) _I2C_DO_SEND_ADR_READ                                 0     0      0      15
               _I2C_MasterSendTxData
 ---------------------------------------------------------------------------------
 (6) _I2C_MasterSendTxData                                 1     1      0      15
                                              0 COMRAM     1     1      0
 ---------------------------------------------------------------------------------
 (5) _I2C_DO_RX_ACK                                        0     0      0       0
                  _I2C_MasterSendAck
 ---------------------------------------------------------------------------------
 (5) _I2C_DO_RX                                            2     2      0   83459
                                             11 COMRAM     2     2      0
                   Absolute function *
            _I2C_CallbackReturnReset *
             _I2C_CallbackReturnStop *
             _I2C_DO_RX_NACK_RESTART
                _I2C_DO_RX_NACK_STOP
                _I2C_MasterGetRxData
                  _I2C_MasterSendAck
              _rd1RegCompleteHandler *
_rd1RegCompleteHandler@i2c_master_ex *
              _rd2RegCompleteHandler *
_rd2RegCompleteHandler@i2c_master_ex *
            _rdBlkRegCompleteHandler *
_rdBlkRegCompleteHandler@i2c_master_ *
              _wr1RegCompleteHandler *
_wr1RegCompleteHandler@i2c_master_ex *
              _wr2RegCompleteHandler *
_wr2RegCompleteHandler@i2c_master_ex *
 ---------------------------------------------------------------------------------
 (6) _I2C_MasterSendAck                                    0     0      0       0
 ---------------------------------------------------------------------------------
 (6) _I2C_MasterGetRxData                                  0     0      0       0
 ---------------------------------------------------------------------------------
 (5) _I2C_DO_RX_NACK_STOP                                  0     0      0       0
                 _I2C_MasterSendNack
 ---------------------------------------------------------------------------------
 (5) _I2C_DO_RX_NACK_RESTART                               0     0      0       0
                 _I2C_MasterSendNack
 ---------------------------------------------------------------------------------
 (6) _I2C_MasterSendNack                                   0     0      0       0
 ---------------------------------------------------------------------------------
 (5) _I2C_DO_RESET                                         0     0      0       0
 ---------------------------------------------------------------------------------
 (5) _I2C_DO_RCEN                                          0     0      0       0
                  _I2C_MasterStartRx
 ---------------------------------------------------------------------------------
 (6) _I2C_MasterStartRx                                    0     0      0       0
 ---------------------------------------------------------------------------------
 (5) _I2C_DO_IDLE                                          0     0      0       0
 ---------------------------------------------------------------------------------
 (5) _I2C_DO_ADDRESS_NACK                                  2     2      0   83459
                                             11 COMRAM     2     2      0
                   Absolute function *
            _I2C_CallbackReturnReset *
             _I2C_CallbackReturnStop *
                _I2C_DO_SEND_RESTART
                   _I2C_DO_SEND_STOP
              _rd1RegCompleteHandler *
_rd1RegCompleteHandler@i2c_master_ex *
              _rd2RegCompleteHandler *
_rd2RegCompleteHandler@i2c_master_ex *
            _rdBlkRegCompleteHandler *
_rdBlkRegCompleteHandler@i2c_master_ *
              _wr1RegCompleteHandler *
_wr1RegCompleteHandler@i2c_master_ex *
              _wr2RegCompleteHandler *
_wr2RegCompleteHandler@i2c_master_ex *
 ---------------------------------------------------------------------------------
 (6) _wr2RegCompleteHandler@i2c_master_example$F168        2     0      2    8320
                                              9 COMRAM     2     0      2
                      _I2C_SetBuffer
        _I2C_SetDataCompleteCallback
 ---------------------------------------------------------------------------------
 (6) _wr2RegCompleteHandler                                2     0      2    8320
                                              9 COMRAM     2     0      2
                      _I2C_SetBuffer
        _I2C_SetDataCompleteCallback
 ---------------------------------------------------------------------------------
 (6) _wr1RegCompleteHandler@i2c_master_example$F162        2     0      2    8320
                                              9 COMRAM     2     0      2
                      _I2C_SetBuffer
        _I2C_SetDataCompleteCallback
 ---------------------------------------------------------------------------------
 (6) _wr1RegCompleteHandler                                2     0      2    8320
                                              9 COMRAM     2     0      2
                      _I2C_SetBuffer
        _I2C_SetDataCompleteCallback
 ---------------------------------------------------------------------------------
 (6) _rdBlkRegCompleteHandler@i2c_master_example$F179      2     0      2    8342
                                              9 COMRAM     2     0      2
                      _I2C_SetBuffer
        _I2C_SetDataCompleteCallback
 ---------------------------------------------------------------------------------
 (6) _rdBlkRegCompleteHandler                              2     0      2    8342
                                              9 COMRAM     2     0      2
                      _I2C_SetBuffer
        _I2C_SetDataCompleteCallback
 ---------------------------------------------------------------------------------
 (6) _rd2RegCompleteHandler@i2c_master_example$F156        2     0      2    8320
                                              9 COMRAM     2     0      2
                      _I2C_SetBuffer
        _I2C_SetDataCompleteCallback
 ---------------------------------------------------------------------------------
 (6) _rd2RegCompleteHandler                                2     0      2    8320
                                              9 COMRAM     2     0      2
                      _I2C_SetBuffer
        _I2C_SetDataCompleteCallback
 ---------------------------------------------------------------------------------
 (6) _rd1RegCompleteHandler@i2c_master_example$F145        2     0      2    8320
                                              9 COMRAM     2     0      2
                      _I2C_SetBuffer
        _I2C_SetDataCompleteCallback
 ---------------------------------------------------------------------------------
 (6) _rd1RegCompleteHandler                                2     0      2    8320
                                              9 COMRAM     2     0      2
                      _I2C_SetBuffer
        _I2C_SetDataCompleteCallback
 ---------------------------------------------------------------------------------
 (7) _I2C_SetDataCompleteCallback                          4     0      4    3998
                                              5 COMRAM     4     0      4
                    _I2C_SetCallback
 ---------------------------------------------------------------------------------
 (8) _I2C_SetCallback                                      5     1      4     914
                                              0 COMRAM     5     1      4
 ---------------------------------------------------------------------------------
 (2) _I2C_SetBuffer                                        4     0      4    4300
                                              0 COMRAM     4     0      4
 ---------------------------------------------------------------------------------
 (6) _I2C_DO_SEND_STOP                                     0     0      0       0
                     _I2C_MasterStop
 ---------------------------------------------------------------------------------
 (7) _I2C_MasterStop                                       0     0      0       0
 ---------------------------------------------------------------------------------
 (6) _I2C_DO_SEND_RESTART                                  0     0      0       0
            _I2C_MasterEnableRestart
 ---------------------------------------------------------------------------------
 (7) _I2C_MasterEnableRestart                              0     0      0       0
 ---------------------------------------------------------------------------------
 (6) _I2C_CallbackReturnStop                               2     0      2       0
                                              9 COMRAM     2     0      2
 ---------------------------------------------------------------------------------
 (6) _I2C_CallbackReturnReset                              2     0      2     215
                                              9 COMRAM     2     0      2
 ---------------------------------------------------------------------------------
 (6) Absolute function(Fake)                               2     0      2       0
 ---------------------------------------------------------------------------------
 (3) _I2C_MasterStart                                      0     0      0       0
 ---------------------------------------------------------------------------------
 (2) _I2C_Close                                            1     1      0      15
                                              0 COMRAM     1     1      0
                 _I2C_MasterClearIrq
                    _I2C_MasterClose
               _I2C_MasterDisableIrq
 ---------------------------------------------------------------------------------
 (3) _I2C_MasterDisableIrq                                 0     0      0       0
 ---------------------------------------------------------------------------------
 (3) _I2C_MasterClose                                      0     0      0       0
 ---------------------------------------------------------------------------------
 (3) _I2C_MasterClearIrq                                   0     0      0       0
 ---------------------------------------------------------------------------------
 Estimated maximum stack depth 8
 ---------------------------------------------------------------------------------
 (Depth) Function   	        Calls       Base Space   Used Autos Params    Refs
 ---------------------------------------------------------------------------------
 (9) _INTERRUPT_InterruptManager                           0     0      0       0
 ---------------------------------------------------------------------------------
 Estimated maximum stack depth 9
 ---------------------------------------------------------------------------------

 Call Graph Graphs:

 _main (ROOT)
   _EEPROM_Read
     _I2C_Close
       _I2C_MasterClearIrq
       _I2C_MasterClose
       _I2C_MasterDisableIrq
     _I2C_MasterOperation
       _I2C_MasterStart
       _I2C_Poller
         _I2C_MasterFsm
           _I2C_DO_ADDRESS_NACK *
             Absolute function(Fake) *
             _I2C_CallbackReturnReset *
             _I2C_CallbackReturnStop *
             _I2C_DO_SEND_RESTART *
               _I2C_MasterEnableRestart
             _I2C_DO_SEND_STOP *
               _I2C_MasterStop
             _rd1RegCompleteHandler *
               _I2C_SetBuffer
               _I2C_SetDataCompleteCallback
                 _I2C_SetCallback
             _rd1RegCompleteHandler@i2c_master_example$F145 *
               _I2C_SetBuffer
               _I2C_SetDataCompleteCallback
             _rd2RegCompleteHandler *
               _I2C_SetBuffer
               _I2C_SetDataCompleteCallback
             _rd2RegCompleteHandler@i2c_master_example$F156 *
               _I2C_SetBuffer
               _I2C_SetDataCompleteCallback
             _rdBlkRegCompleteHandler *
               _I2C_SetBuffer
               _I2C_SetDataCompleteCallback
             _rdBlkRegCompleteHandler@i2c_master_example$F179 *
               _I2C_SetBuffer
               _I2C_SetDataCompleteCallback
             _wr1RegCompleteHandler *
               _I2C_SetBuffer
               _I2C_SetDataCompleteCallback
             _wr1RegCompleteHandler@i2c_master_example$F162 *
               _I2C_SetBuffer
               _I2C_SetDataCompleteCallback
             _wr2RegCompleteHandler *
               _I2C_SetBuffer
               _I2C_SetDataCompleteCallback
             _wr2RegCompleteHandler@i2c_master_example$F168 *
               _I2C_SetBuffer
               _I2C_SetDataCompleteCallback
           _I2C_DO_IDLE *
           _I2C_DO_RCEN *
             _I2C_MasterStartRx
           _I2C_DO_RESET *
           _I2C_DO_RX *
             Absolute function(Fake) *
             _I2C_CallbackReturnReset *
             _I2C_CallbackReturnStop *
             _I2C_DO_RX_NACK_RESTART *
               _I2C_MasterSendNack
             _I2C_DO_RX_NACK_STOP *
               _I2C_MasterSendNack
             _I2C_MasterGetRxData *
             _I2C_MasterSendAck *
             _rd1RegCompleteHandler *
             _rd1RegCompleteHandler@i2c_master_example$F145 *
             _rd2RegCompleteHandler *
             _rd2RegCompleteHandler@i2c_master_example$F156 *
             _rdBlkRegCompleteHandler *
             _rdBlkRegCompleteHandler@i2c_master_example$F179 *
             _wr1RegCompleteHandler *
             _wr1RegCompleteHandler@i2c_master_example$F162 *
             _wr2RegCompleteHandler *
             _wr2RegCompleteHandler@i2c_master_example$F168 *
           _I2C_DO_RX_ACK *
             _I2C_MasterSendAck
           _I2C_DO_RX_NACK_RESTART *
           _I2C_DO_RX_NACK_STOP *
           _I2C_DO_SEND_ADR_READ *
             _I2C_MasterSendTxData
           _I2C_DO_SEND_ADR_WRITE *
             _I2C_MasterSendTxData
           _I2C_DO_SEND_RESTART *
           _I2C_DO_SEND_RESTART_READ *
             _I2C_MasterEnableRestart
           _I2C_DO_SEND_RESTART_WRITE *
             _I2C_MasterEnableRestart
           _I2C_DO_SEND_STOP *
           _I2C_DO_TX *
             Absolute function(Fake) *
             _I2C_CallbackReturnReset *
             _I2C_CallbackReturnStop *
             _I2C_DO_SEND_RESTART_READ *
             _I2C_DO_SEND_RESTART_WRITE *
             _I2C_DO_SEND_STOP *
             _I2C_MasterIsNack *
             _I2C_MasterSendTxData *
             _rd1RegCompleteHandler *
             _rd1RegCompleteHandler@i2c_master_example$F145 *
             _rd2RegCompleteHandler *
             _rd2RegCompleteHandler@i2c_master_example$F156 *
             _rdBlkRegCompleteHandler *
             _rdBlkRegCompleteHandler@i2c_master_example$F179 *
             _wr1RegCompleteHandler *
             _wr1RegCompleteHandler@i2c_master_example$F162 *
             _wr2RegCompleteHandler *
             _wr2RegCompleteHandler@i2c_master_example$F168 *
           _I2C_DO_TX_EMPTY *
             Absolute function(Fake) *
             _I2C_CallbackReturnReset *
             _I2C_CallbackReturnStop *
             _I2C_DO_SEND_RESTART *
             _I2C_DO_SEND_STOP *
             _I2C_MasterSetIrq *
             _rd1RegCompleteHandler *
             _rd1RegCompleteHandler@i2c_master_example$F145 *
             _rd2RegCompleteHandler *
             _rd2RegCompleteHandler@i2c_master_example$F156 *
             _rdBlkRegCompleteHandler *
             _rdBlkRegCompleteHandler@i2c_master_example$F179 *
             _wr1RegCompleteHandler *
             _wr1RegCompleteHandler@i2c_master_example$F162 *
             _wr2RegCompleteHandler *
             _wr2RegCompleteHandler@i2c_master_example$F168 *
           _I2C_MasterClearIrq *
           _I2C_MasterIsNack *
         _I2C_MasterWaitForEvent
     _I2C_Open
       _I2C_MasterClearIrq
       _I2C_MasterOpen
     _I2C_SetBuffer
   _EEPROM_Write
     _I2C_Close
     _I2C_MasterOperation
     _I2C_Open
     _I2C_SetBuffer
   _LCD_Clear
     _EUSART1_Write
   _LCD_Write
     _I2C_Close
     _I2C_MasterOperation
     _I2C_Open
     _I2C_SetBuffer
   _SYSTEM_Initialize
     _EUSART1_Initialize
       _EUSART1_SetErrorHandler
       _EUSART1_SetFramingErrorHandler
       _EUSART1_SetOverrunErrorHandler
     _OSCILLATOR_Initialize
     _PIN_MANAGER_Initialize

 _INTERRUPT_InterruptManager (ROOT)

 Address spaces:
Name               Size   Autos  Total    Cost      Usage
BIGRAM             E40      0       0      51        0.0%
EEDATA             400      0       0       0        0.0%
BITBIGSFRllll      10F      0       0      39        0.0%
BITBANK13          100      0       0      49        0.0%
BANK13             100      0       0      22        0.0%
BITBANK12          100      0       0      48        0.0%
BANK12             100      0       0      21        0.0%
BITBANK11          100      0       0      47        0.0%
BANK11             100      0       0      20        0.0%
BITBANK10          100      0       0      46        0.0%
BANK10             100      0       0      19        0.0%
BITBANK9           100      0       0      45        0.0%
BANK9              100      0       0      18        0.0%
BITBANK8           100      0       0      44        0.0%
BANK8              100      0       0      17        0.0%
BITBANK7           100      0       0      43        0.0%
BANK7              100      0       0      16        0.0%
BITBANK6           100      0       0      42        0.0%
BANK6              100      0       0      15        0.0%
BITBANK5           100      0       0      41        0.0%
BANK5              100      0       0      14        0.0%
BITBANK4           100      0       0      12        0.0%
BANK4              100      0       0      13        0.0%
BITBANK3           100      0       0      10        0.0%
BANK3              100      0       0      11        0.0%
BITBANK2           100      0       0       8        0.0%
BANK2              100      0       0       9        0.0%
BITBANK1           100      0       0       6        0.0%
BANK1              100      0       0       7        0.0%
BITBANK0            A0      0       0       4        0.0%
BANK0               A0      0       0       5        0.0%
BITCOMRAM           5E      0       0       0        0.0%
COMRAM              5E     1A      51       1       86.2%
BITBANK14           41      0       0      50        0.0%
BANK14              41      0       0      23        0.0%
BITBIGSFRllh        1F      0       0      37        0.0%
BITBIGSFRhhhhl      1D      0       0      25        0.0%
BITBIGSFRhhhll      15      0       0      28        0.0%
BITBIGSFRhhhhh       D      0       0      24        0.0%
BITBIGSFRlhlll       B      0       0      36        0.0%
BITBIGSFRlllh        8      0       0      38        0.0%
BITBIGSFRlhllhl      6      0       0      35        0.0%
BITBIGSFRlhllhh      4      0       0      34        0.0%
BITBIGSFRhhhlhl      3      0       0      27        0.0%
BITBIGSFRlhhhh       2      0       0      30        0.0%
BITBIGSFRlhhl        2      0       0      32        0.0%
BITBIGSFRhl          2      0       0      29        0.0%
BITBIGSFRhhhlhh      1      0       0      26        0.0%
BITBIGSFRlhhhl       1      0       0      31        0.0%
BITBIGSFRlhlh        1      0       0      33        0.0%
BIGSFR               0      0       0     200        0.0%
BITSFR_2             0      0       0     200        0.0%
SFR_2                0      0       0     200        0.0%
BITSFR_1             0      0       0     200        0.0%
SFR_1                0      0       0     200        0.0%
BITSFR               0      0       0     200        0.0%
SFR                  0      0       0     200        0.0%
STACK                0      0       0       2        0.0%
NULL                 0      0       0       0        0.0%
ABS                  0      0      51      40        0.0%
DATA                 0      0      51       3        0.0%
CODE                 0      0       0       0        0.0%


Microchip Technology PIC18 Macro Assembler V2.40 build 20220703182018 
Symbol Table                                                                                   Mon Mar 03 21:05:15 2025

                                 ??_I2C_DO_SEND_ADR_READ 002F  
                                ??_I2C_DO_SEND_ADR_WRITE 0030  
                                            _SSPSTATbits 000FC7  
                                                     l17 1834  
                                                     l53 17DC  
                                                     l38 1808  
                                                     l65 17B0  
                                                     l77 168A  
                                                     u30 1952  
                                                     u31 194C  
                                                     u36 1954  
                                  ??_I2C_DO_SEND_RESTART 002F  
                                                    l240 16C8  
                                                    l305 1984  
                                                    l500 15C8  
                                                    l308 1966  
                                                    l333 18B2  
                                                    l191 172C  
                                                    l503 19EA  
                                                    l512 10B0  
                                                    l264 192E  
                                                    l185 1784  
                                                    l194 1860  
                                                    l602 1A46  
                                                    l506 19AE  
                                                    l282 19C2  
                                                    l451 188A  
                                                    l515 10E4  
                                                    l267 1940  
                                                    l188 1758  
                                                    l540 19E0  
                                                    l612 18D4  
                                                    l197 164A  
                                                    l621 1A2A  
                                                    l509 19A0  
                                                    l285 19B8  
                                                    l470 18F6  
                                                    l630 1A42  
                                                    l615 1A5E  
                                                    l447 12CE  
                                                    l624 1A52  
                                                    l528 11D2  
                                                    l288 19CC  
                                                    l633 1A56  
                                                    l473 192A  
                                                    l529 1242  
                                                    l457 160A  
                                                    l490 13C4  
                                                    l618 1A3E  
                                                    l642 1A30  
                                                    l546 134A  
                                                    l570 1A12  
                                                    l731 1992  
                                                    l660 1A5A  
                                                    l636 1A4E  
                                                    l564 1A22  
                                                    l645 1A36  
                                                    l573 1A0A  
                                                    l582 19F2  
                                                    l742 14A6  
                                                    l663 1A62  
                                                    l639 1954  
                                                    l567 1A1A  
                                                    l591 1510  
                                                    l576 1A02  
                                                    l496 1912  
                                                    l728 156C  
                                                    l585 19D6  
                                                    l673 1976  
                                                    l666 1A3A  
                                                    l579 19FA  
                                                    l669 1968  
                                                    l599 1A4A  
                                                    l759 119C  
                                                    u110 1976  
                                                    u111 1972  
                                                    u150 18C2  
                                                    u151 18BE  
                                                    u170 1258  
                                                    u171 1254  
                                                    u180 1874  
                                                    u181 1870  
                                                    u190 193C  
                                                    u191 1938  
                                                    u740 1360  
                                                    u900 1554  
                                                    u741 135C  
                                                    u901 1550  
                                                    u750 18E4  
                                                    u830 1580  
                                                    u910 1450  
                                                    u751 18E0  
                                                    u831 157C  
                                                    u911 144C  
                                                    u760 1036  
                                                    u808 11F6  
                                                    u840 1594  
                                                    u920 1496  
                                                    u761 1032  
                                                    u809 120A  
                                                    u841 1590  
                                                    u921 1492  
                                                    u818 12FE  
                                                    u930 10FC  
                                                    u819 1312  
                                                    u931 10F8  
                                                    u780 10DC  
                                                    u828 14D4  
                                                    u860 1912  
                                                    u940 113A  
                                                    u781 10D8  
                                                    u829 14E8  
                                                    u861 190E  
                                                    u941 1136  
                                                    u790 11C8  
                                                    u870 15DE  
                                                    u950 1160  
                                                    u791 11C4  
                                                    u871 15DA  
                                                    u951 115C  
                                                    u880 15F4  
                                                    u960 118C  
                                                    u881 15F0  
                                                    u961 1188  
                                                    u778 1064  
                                                    u858 15AE  
                                                    u890 1528  
                                                    u779 1078  
                                                    u859 15C6  
                                                    u891 1524  
                                        _timer1ReloadVal 0028  
                                 fp__I2C_DO_RX_NACK_STOP 006C  
                                 _I2C_MasterWaitForEvent 1968  
                                                    prod 000FF3  
                                                    tosl 000FFD  
                                                    wreg 000FE8  
                                             _TXSTA1bits 000FAC  
                               ??_I2C_CallbackReturnStop 003A  
                                           _I2C_DO_RESET 19CE  
                                ??_rd2RegCompleteHandler 003A  
                                                   l1620 1942  
                                                   l1700 1996  
                                                   l1534 1A50  
                                                   l1702 199E  
                                                   l1536 1A4C  
                                                   l2520 134E  
                                                   l2600 1836  
                                                   l1624 1A26  
                                                   l1632 1A14  
                                                   l1640 1A08  
                                                   l3080 13CE  
                                                   l2530 18EC  
                                                   l2522 1360  
                                                   l2602 184A  
                                                   l2610 1634  
                                                   l1538 1A32  
                                                   l1626 1A1C  
                                                   l1634 1A18  
                                                   l1802 19FC  
                                                   l1650 19EC  
                                                   l1810 19D0  
                                                   l3090 1422  
                                                   l3082 13DA  
                                                   l2532 18F4  
                                                   l2524 1394  
                                                   l2604 185E  
                                                   l2540 1832  
                                                   l2612 1648  
                                                   l1644 1A3C  
                                                   l2620 103A  
                                                   l1628 1A20  
                                                   l1804 1A00  
                                                   l1652 19F0  
                                                   l1812 19D4  
                                                   l3172 14FA  
                                                   l1900 1288  
                                                   l3084 13EA  
                                                   l3076 13C6  
                                                   l2526 18D6  
                                                   l2534 1914  
                                                   l1662 1A40  
                                                   l1670 1A38  
                                                   l3174 121C  
                                                   l1638 1A04  
                                                   l1910 12B0  
                                                   l1902 1290  
                                                   l3086 13FA  
                                                   l3078 13CA  
                                                   l1680 1A60  
                                                   l2528 18E4  
                                                   l2536 180A  
                                                   l2544 17DE  
                                                   l2552 17B2  
                                                   l2560 1786  
                                                   l2608 160C  
                                                   l1672 1A48  
                                                   l1648 1A2C  
                                                   l2640 10DC  
                                                   l3176 108A  
                                                   l2624 1042  
                                                   l2616 1022  
                                                   l1664 1A0C  
                                                   l1656 19F4  
                                                   l1808 19CE  
                                                   l2712 14BA  
                                                   l2704 14A8  
                                                   l1912 12B8  
                                                   l1904 1298  
                                                   l1920 12CC  
                                                   l2800 1450  
                                                   l3088 140A  
                                                   l1930 1878  
                                                   l2538 181E  
                                                   l2546 17F2  
                                                   l2554 17C6  
                                                   l2562 179A  
                                                   l2570 1674  
                                                   l3178 1324  
                                                   l1682 19E2  
                                                   l1690 19A2  
                                                   l2642 10E2  
                                                   l2634 1052  
                                                   l2650 119E  
                                                   l1770 19D8  
                                                   l1666 1A10  
                                                   l1658 19F8  
                                                   l2706 14AA  
                                                   l2730 1594  
                                                   l1914 12C0  
                                                   l1906 12A0  
                                                   l2810 1482  
                                                   l2802 1460  
                                                   l1932 1884  
                                                   l1924 1862  
                                                   l2548 1806  
                                                   l2556 17DA  
                                                   l2564 17AE  
                                                   l2572 1688  
                                                   l2580 1782  
                                                   l1676 1A44  
                                                   l1684 19E4  
                                                   l1692 19A4  
                                                   l2636 10B2  
                                                   l2628 104A  
                                                   l2652 11AC  
                                                   l1772 19DA  
                                                   l2708 14B2  
                                                   l2732 1598  
                                                   l2724 156E  
                                                   l2740 18F8  
                                                   l1916 12C4  
                                                   l1908 12A8  
                                                   l2820 1108  
                                                   l2812 1496  
                                                   l2804 1464  
                                                   l1862 1A58  
                                                   l1934 1888  
                                                   l1926 1866  
                                                   l1686 19E8  
                                                   l1694 19AC  
                                                   l2638 10C4  
                                                   l2654 11B0  
                                                   l1774 19DE  
                                                   l2718 14C2  
                                                   l2726 1572  
                                                   l2742 18FC  
                                                   l1854 18B4  
                                                   l1918 12C8  
                                                   l2830 114A  
                                                   l2822 110C  
                                                   l2814 10E6  
                                                   l2806 1468  
                                                   l1950 193C  
                                                   l2734 19BA  
                                                   l2750 16A0  
                                                   l1864 1A5C  
                                                   l1928 1874  
                                                   l2568 164C  
                                                   l2576 175A  
                                                   l2584 172E  
                                                   l2592 1702  
                                                   l2680 12D0  
                                                   l2664 11D8  
                                                   l2656 11C8  
                                                   l2728 1580  
                                                   l2744 1900  
                                                   l2760 15D0  
                                                   l1856 18C2  
                                                   l1880 1258  
                                                   l2832 1160  
                                                   l2824 1120  
                                                   l2816 10E6  
                                                   l2808 147C  
                                                   l2736 19B0  
                                                   l2752 16AC  
                                                   l1952 188C  
                                                   l1866 1A54  
                                                   l2578 176E  
                                                   l2586 1742  
                                                   l2594 1716  
                                                   l2682 12D6  
                                                   l1698 1994  
                                                   l2674 11E8  
                                                   l2658 11CC  
                                                   l2746 1904  
                                                   l2770 15FC  
                                                   l2762 15DE  
                                                   l1858 18D2  
                                                   l1890 1266  
                                                   l1882 125C  
                                                   l2834 1172  
                                                   l2826 1126  
                                                   l2818 10FC  
                                                   l2738 19C4  
                                                   l2754 16B8  
                                                   l1954 189C  
                                                   l2588 1756  
                                                   l2596 172A  
                                                   l2692 12E8  
                                                   l2668 11E0  
                                                   l2772 1600  
                                                   l2764 15E0  
                                                   l1892 126E  
                                                   l1884 125E  
                                                   l1876 1246  
                                                   l2836 1178  
                                                   l2828 113A  
                                                   l1948 192E  
                                                   l2756 16C4  
                                                   l2748 168C  
                                                   l1956 18B0  
                                                   l2780 1978  
                                                   l2686 12DE  
                                                   l2774 1604  
                                                   l2766 15E4  
                                                   l2758 15CC  
                                                   l1894 1270  
                                                   l1886 1260  
                                                   l1878 124A  
                                                   l2838 118C  
                                                   l2790 153A  
                                                   l1958 1956  
                                                   l2782 1980  
                                                   l2688 12E2  
                                                   l2768 15F4  
                                                   l2776 1608  
                                                   l1896 1278  
                                                   l1888 1262  
                                                   l2792 1540  
                                                   l2784 1512  
                                                   l2698 12F0  
                                                   l1898 1280  
                                                   l2794 1554  
                                                   l2786 1512  
                                                   l2796 143A  
                                                   l2788 1528  
                                                   l2798 143A  
                                                   l1998 1986  
                                                   u1307 149C  
                                                   u1317 1140  
                                                   _LATA 000F89  
                                                   _LATB 000F8A  
                                                   u1327 1192  
                                                   _LATC 000F8B  
                                                   u1297 155E  
                                                   _WPUB 000F5B  
                                ??_wr2RegCompleteHandler 003A  
                                          _EUSART1_Write 192C  
                                            main@message 0046  
                                                   _main 13C6  
                               ?_I2C_CallbackReturnReset 0038  
                                                   fsr2h 000FDA  
                                                   indf2 000FDF  
                                                   fsr2l 000FD9  
                                       __end_of_I2C_Open 12D0  
                                                   btemp 0052  
                                                   prodh 000FF4  
                                                   prodl 000FF3  
                                                   start 006C  
       fp__rd1RegCompleteHandler@i2c_master_example$F145 006C  
  __end_of_rd1RegCompleteHandler@i2c_master_example$F145 1786  
          _rd1RegCompleteHandler@i2c_master_example$F145 175A  
       fp__wr1RegCompleteHandler@i2c_master_example$F162 006C  
  __end_of_wr1RegCompleteHandler@i2c_master_example$F162 172E  
          _wr1RegCompleteHandler@i2c_master_example$F162 1702  
       fp__rd2RegCompleteHandler@i2c_master_example$F156 006C  
  __end_of_rd2RegCompleteHandler@i2c_master_example$F156 175A  
          _rd2RegCompleteHandler@i2c_master_example$F156 172E  
       fp__wr2RegCompleteHandler@i2c_master_example$F168 006C  
  __end_of_wr2RegCompleteHandler@i2c_master_example$F168 1862  
          _wr2RegCompleteHandler@i2c_master_example$F168 1836  
     fp__rdBlkRegCompleteHandler@i2c_master_example$F179 006C  
__end_of_rdBlkRegCompleteHandler@i2c_master_example$F179 164C  
        _rdBlkRegCompleteHandler@i2c_master_example$F179 160C  
                           fp__I2C_DO_SEND_RESTART_WRITE 006C  
                                           ___param_bank 000000  
                                   __end_of_EEPROM_Write 14A8  
                                       ?_I2C_MasterClose 002F  
                                       ?_I2C_MasterStart 002F  
                                          _I2C_DO_RX_ACK 19FC  
                          __end_of_OSCILLATOR_Initialize 1968  
                                                  ?_main 002F  
                                                  _T1CON 000FCD  
                                                  i2l700 0058  
                                                  i2l705 0068  
                                                  i2l698 0038  
                                                  _TMR1H 000FCF  
                                                  _TMR1L 000FCE  
                                      ??_I2C_DO_TX_EMPTY 003A  
                                                  _TRISA 000F92  
                                                  _TRISB 000F93  
                                                  _TRISC 000F94  
                                      __end_of_I2C_DO_RX 1244  
                                      __end_of_I2C_DO_TX 10E6  
                                      __end_of_I2C_Close 188C  
                         I2C_MasterOperation@returnValue 003D  
                                _I2C_MasterEnableRestart 1A50  
                                         ?_EUSART1_Write 002F  
                                                  pclath 000FFA  
                                                  tablat 000FF5  
                                       ?_I2C_SetCallback 002F  
                                                  ttemp5 0053  
                                                  ttemp6 0056  
                                                  ttemp7 005A  
                                                  status 000FD8  
                                                  wtemp8 0053  
                                      ?_I2C_DO_SEND_STOP 002F  
                     _EUSART1_DefaultFramingErrorHandler 000000  
                                       EEPROM_Write@addr 003E  
                                       EEPROM_Write@data 0040  
                                     ??_I2C_DO_SEND_STOP 002F  
                               fp__rd1RegCompleteHandler 006C  
                                        __initialization 16CA  
                             __end_of_EUSART1_Initialize 16CA  
                                           __end_of_main 143A  
                               fp__wr1RegCompleteHandler 006C  
                              ?_I2C_DO_SEND_RESTART_READ 002F  
                                         ?_I2C_DO_RX_ACK 002F  
                            ?_INTERRUPT_InterruptManager 002F  
                                                 ??_main 0046  
                                      ?_I2C_MasterIsNack 002F  
                                      __end_of_LCD_Clear 1994  
                                          __activetblptr 000002  
                                      ?_I2C_MasterSetIrq 002F  
                                     ??_I2C_MasterIsNack 002F  
                                      __end_of_LCD_Write 156E  
                                     ??_I2C_MasterSetIrq 002F  
                        __end_of_I2C_CallbackReturnReset 1A48  
                                                 _CCPR2H 000F52  
                                                 _CCPR2L 000F51  
                                                 _ANCON0 000F5D  
                                                 _ANCON1 000F5C  
                          I2C_SetDataCompleteCallback@cb 0034  
                                                 _T1GCON 000FAA  
                                           ??_I2C_Poller 003C  
                                                 i2l2370 0046  
                                                 i2l2362 000A  
                                                 i2l2364 0018  
                                                 i2l2374 0066  
                                                 i2l2366 0026  
                                                 _RCREG1 000FAE  
                                                 _RCSTA1 000FAB  
                                                 _OSCCON 000FD3  
                                                 _SPBRG1 000FAF  
                                                 _SSPADD 000FC8  
                                                 _SSPBUF 000FC9  
                               rdBlkRegCompleteHandler@p 0038  
                                                 _TXREG1 000FAD  
                                                 _TXSTA1 000FAC  
                                    _I2C_MasterGetRxData 1A3C  
                                          _CCP2_CallBack 002A  
                                          _I2C_MasterFsm 156E  
                                       LCD_Write@message 003E  
                               ?_EUSART1_SetErrorHandler 002F  
                                                 clear_0 16EE  
                                      I2C_SetCallback@cb 002F  
                                fp__I2C_DO_SEND_ADR_READ 006C  
                                                 isa$std 000001  
                       ??_EUSART1_SetOverrunErrorHandler 0031  
                        ?_EUSART1_SetOverrunErrorHandler 002F  
                                          _I2C_SetBuffer 18D6  
                                     __end_of_I2C_Poller 1914  
                           __end_of_I2C_MasterDisableIrq 1A5C  
                                    _I2C_DO_ADDRESS_NACK 14A8  
                                           __pdataCOMRAM 004F  
                                   ?_I2C_MasterGetRxData 002F  
                                              ?_I2C_Open 002F  
                                           __mediumconst 0000  
                                                 tblptrh 000FF7  
                                                 tblptrl 000FF6  
                                                 tblptru 000FF8  
                              ??_I2C_MasterEnableRestart 002F  
                                        ??_EUSART1_Write 002F  
                                      _SYSTEM_Initialize 1978  
                                             __accesstop 0060  
                                __end_of__initialization 16F4  
                                    _I2C_MasterOperation 15CA  
                                     ?_SYSTEM_Initialize 002F  
                                          ___rparam_used 000001  
                                   ?_I2C_DO_ADDRESS_NACK 002F  
                                _rdBlkRegCompleteHandler 164C  
                             fp__rdBlkRegCompleteHandler 006C  
                                         __pcstackCOMRAM 002F  
                                         ?_I2C_MasterFsm 002F  
                                        ??_I2C_DO_RX_ACK 002F  
                                 _I2C_CallbackReturnStop 1A48  
                                    ??_SYSTEM_Initialize 0031  
                                         ?_I2C_SetBuffer 002F  
                                ?_I2C_MasterWaitForEvent 002F  
                          __end_of_I2C_DO_SEND_ADR_WRITE 19A2  
                             ?_I2C_DO_SEND_RESTART_WRITE 002F  
                                   ?_I2C_MasterOperation 002F  
                                  ??_I2C_MasterGetRxData 002F  
                                             ??_I2C_Open 002F  
                             __end_of_I2C_MasterClearIrq 1A64  
                              __end_of_SYSTEM_Initialize 1986  
                                      _I2C_MasterSendAck 1A2C  
                                           _EEPROM_Write 143A  
                                          ??_I2C_DO_IDLE 002F  
                                          ??_I2C_DO_RCEN 002F  
                          __end_of_rd2RegCompleteHandler 17DE  
                           __end_of_I2C_MasterSendTxData 1A2C  
                                     ?_I2C_MasterSendAck 002F  
                                      _I2C_MasterStartRx 1A40  
                                             __pnvCOMRAM 0049  
                                  ??_I2C_DO_ADDRESS_NACK 003A  
                          __end_of_wr2RegCompleteHandler 17B2  
                                    _I2C_DO_RX_NACK_STOP 19F4  
                                  _rd1RegCompleteHandler 17DE  
                                     ?_I2C_MasterStartRx 002F  
                             __end_of_I2C_MasterSendNack 1A38  
                                  _wr1RegCompleteHandler 180A  
                        __end_of_EUSART1_SetErrorHandler 19CE  
                                    ??_I2C_MasterSendAck 002F  
                            __end_of_I2C_DO_SEND_RESTART 1A14  
                                        _I2C_DO_TX_EMPTY 12D0  
                                    I2C_SetBuffer@buffer 002F  
                         __end_of_I2C_MasterWaitForEvent 1978  
                                    ??_I2C_MasterStartRx 002F  
                                                _CCP2CON 000F50  
                                  ??_I2C_MasterOperation 003C  
                         I2C_SetDataCompleteCallback@ptr 0036  
                 __end_of_EUSART1_SetFramingErrorHandler 19C4  
                         _EUSART1_SetFramingErrorHandler 19BA  
                               ??_I2C_DO_RX_NACK_RESTART 002F  
                      __end_of_I2C_DO_SEND_RESTART_WRITE 1A1C  
                                   ?_I2C_DO_RX_NACK_STOP 002F  
                                                _REFOCON 000F9A  
                                                _OSCCON2 000FD2  
                              __end_of_I2C_MasterSendAck 1A32  
                                                i2u70_40 0046  
                                                i2u70_41 0042  
                                                _OSCTUNE 000F9B  
                                                i2u71_40 0054  
                                                i2u71_41 0050  
                                                i2u72_40 0066  
                                                i2u72_41 0062  
                                                i2u67_40 0018  
                                                i2u67_41 0014  
                                                _SPBRGH1 000F7D  
                                                i2u68_40 0026  
                                                i2u68_41 0022  
                                                i2u69_40 0034  
                                                i2u69_41 0030  
                                                _SSPCON1 000FC6  
                                                _SSPCON2 000FC5  
                                                _SSPSTAT 000FC7  
                              __end_of_I2C_MasterStartRx 1A44  
                                   I2C_Close@returnValue 002F  
                           ?_I2C_SetDataCompleteCallback 0034  
                                              _I2C_DO_RX 119E  
                                              _I2C_DO_TX 1022  
                       __end_of_I2C_DO_SEND_RESTART_READ 1A24  
                                              _I2C_Close 1862  
                              ??_rdBlkRegCompleteHandler 003A  
                                   _I2C_MasterDisableIrq 1A58  
                                        ??_I2C_MasterFsm 003C  
                                                __Hparam 0000  
                                                __Lparam 0000  
                                    __end_of_I2C_DO_IDLE 19EC  
                                    __end_of_I2C_DO_RCEN 19E2  
                                        ??_I2C_SetBuffer 0033  
                                I2C_SetBuffer@bufferSize 0031  
                                           __psmallconst 1000  
                                         _I2C_MasterOpen 18B4  
                                                __pcinit 16CA  
                                         _I2C_MasterStop 1A4C  
                                                __ramtop 1000  
                                                __ptext0 13C6  
                                                __ptext1 1978  
                                                __ptext2 188C  
                                                __ptext3 1956  
                                                __ptext4 168C  
                                                __ptext5 19B0  
                                                __ptext6 19BA  
                                                __ptext7 19C4  
                                                __ptext8 1512  
                                                __ptext9 1986  
                                  ??_I2C_DO_RX_NACK_STOP 002F  
                                              _T1CONbits 000FCD  
                                  _OSCILLATOR_Initialize 1956  
                                     I2C_SetCallback@idx 0033  
                                     _EUSART1_Initialize 168C  
                               ??_PIN_MANAGER_Initialize 002F  
                          I2C_CallbackReturnReset@funPtr 0038  
                                     I2C_SetCallback@ptr 0031  
                               fp__I2C_DO_SEND_ADR_WRITE 006C  
                                              _LCD_Clear 1986  
                                              _LCD_Write 1512  
                                   end_of_initialization 16F4  
                                  EEPROM_Read@addrBuffer 0044  
                                    ?_EUSART1_Initialize 002F  
                                             ?_I2C_DO_RX 002F  
                                             ?_I2C_DO_TX 002F  
                                          ??_EEPROM_Read 0043  
                                          __Lmediumconst 0000  
                                             ?_I2C_Close 002F  
                            _EUSART1_OverrunErrorHandler 004B  
                                 ?_rd1RegCompleteHandler 0038  
                                __end_of_I2C_DO_TX_EMPTY 134C  
                                     EEPROM_Write@F12643 0025  
                                  ?_I2C_MasterDisableIrq 002F  
                                 ?_wr1RegCompleteHandler 0038  
                               fp__rd2RegCompleteHandler 006C  
                                                postdec2 000FDD  
                                 __end_of_I2C_MasterOpen 18D6  
                               fp__wr2RegCompleteHandler 006C  
                                                postinc0 000FEE  
                                                postinc2 000FDE  
                                 __end_of_I2C_MasterStop 1A50  
                                             main@F12652 004F  
                              fp__I2C_CallbackReturnStop 006C  
                                   ??_EUSART1_Initialize 0031  
                        __end_of_rdBlkRegCompleteHandler 168C  
                                   _I2C_MasterSendTxData 1A24  
                                        fp__I2C_DO_RESET 006C  
                                             ?_LCD_Clear 002F  
                                     EEPROM_Write@buffer 0042  
                                    EUSART1_Write@txData 002F  
                                             ?_LCD_Write 003E  
                                            _I2C_DO_IDLE 19E2  
                                            _I2C_DO_RCEN 19D8  
                                ?_I2C_CallbackReturnStop 0038  
                               _I2C_DO_SEND_RESTART_READ 1A1C  
                            fp__I2C_DO_SEND_RESTART_READ 006C  
                                    __end_of_EEPROM_Read 119E  
                           I2C_CallbackReturnStop@funPtr 0038  
                                        ?_I2C_MasterOpen 002F  
                                        ?_I2C_MasterStop 002F  
                                _I2C_CallbackReturnReset 1A44  
                             fp__I2C_CallbackReturnReset 006C  
                                          __pidataCOMRAM 1A64  
                                  ?_I2C_MasterSendTxData 002F  
                                 ?_OSCILLATOR_Initialize 002F  
                            ??_I2C_DO_SEND_RESTART_WRITE 002F  
                                    start_initialization 16CA  
                                          ?_I2C_DO_RESET 002F  
                                  __end_of_EUSART1_Write 1942  
                                            ??_I2C_DO_RX 003A  
                                            ??_I2C_DO_TX 003A  
                                      ??_I2C_MasterClose 002F  
                                 rd1RegCompleteHandler@p 0038  
                                 ??_I2C_MasterDisableIrq 002F  
                                            ??_I2C_Close 002F  
                                      ??_I2C_MasterStart 002F  
                         __end_of_I2C_CallbackReturnStop 1A4C  
                                 _I2C_DO_RX_NACK_RESTART 19EC  
                                       ?_I2C_DO_TX_EMPTY 002F  
                                     _I2C_MasterClearIrq 1A60  
                                        LCD_Write@length 0040  
                                 wr1RegCompleteHandler@p 0038  
                                            _CCPTMRSbits 000F99  
                                    ?_I2C_MasterClearIrq 002F  
                            __end_of_I2C_MasterGetRxData 1A40  
                                  __end_of_I2C_DO_RX_ACK 1A04  
                                       _I2C_DO_SEND_STOP 1A04  
                                      ??_I2C_SetCallback 0033  
                                    I2C_Open@returnValue 0030  
                                     _I2C_MasterSendNack 1A32  
                               ?_I2C_MasterEnableRestart 002F  
                                      _i2c_fsmStateTable 1001  
                                 fp__I2C_DO_SEND_RESTART 006C  
                                  _I2C_DO_SEND_ADR_WRITE 1994  
                                            __pbssCOMRAM 0001  
                                         ??_I2C_DO_RESET 002F  
                                            ??_LCD_Clear 0030  
                                    ?_I2C_MasterSendNack 002F  
                           __end_of_I2C_DO_SEND_ADR_READ 19B0  
                                   ??_I2C_MasterClearIrq 002F  
                            __end_of_I2C_DO_ADDRESS_NACK 1512  
                                            ??_LCD_Write 0041  
                       ??_EUSART1_SetFramingErrorHandler 0031  
                        ?_EUSART1_SetFramingErrorHandler 002F  
                                       _I2C_MasterIsNack 1942  
                              _I2C_DO_SEND_RESTART_WRITE 1A14  
                                            _EEPROM_Read 10E6  
                                       _I2C_MasterSetIrq 1A38  
                                  _rd2RegCompleteHandler 17B2  
                                 _PIN_MANAGER_Initialize 188C  
                                  _wr2RegCompleteHandler 1786  
                              ??_I2C_CallbackReturnReset 003A  
                            __end_of_I2C_MasterOperation 160C  
                                   ??_I2C_MasterSendNack 002F  
                                              __pintcode 0008  
                                 ??_I2C_MasterSendTxData 002F  
                              __end_of_i2c_fsmStateTable 1021  
                           ??_INTERRUPT_InterruptManager 002F  
                                           fp__I2C_DO_RX 006C  
                                           fp__I2C_DO_TX 006C  
                                            __smallconst 1000  
                                               _BAUDCON1 000FA7  
                     _EUSART1_DefaultOverrunErrorHandler 000000  
                                I2C_MasterOperation@read 003C  
                                               _I2C_Open 1244  
                                   _EUSART1_ErrorHandler 0049  
       rd1RegCompleteHandler@i2c_master_example$F145@ptr 0038  
       wr1RegCompleteHandler@i2c_master_example$F162@ptr 0038  
       rd2RegCompleteHandler@i2c_master_example$F156@ptr 0038  
                                _EUSART1_SetErrorHandler 19C4  
       wr2RegCompleteHandler@i2c_master_example$F168@ptr 0038  
     rdBlkRegCompleteHandler@i2c_master_example$F179@ptr 0038  
                                ??_rd1RegCompleteHandler 003A  
                                ??_wr1RegCompleteHandler 003A  
                EUSART1_SetErrorHandler@interruptHandler 002F  
                                               _PIE1bits 000F9D  
                                               _PIE3bits 000FA3  
                                   _CCP2_DefaultCallBack 000000  
                                               _PIR1bits 000F9E  
                                               _PIR2bits 000FA1  
                                               _PIR3bits 000FA4  
                                  __end_of_I2C_MasterFsm 15CA  
                                               _RCONbits 000FD0  
                            __end_of_I2C_DO_RX_NACK_STOP 19FC  
                        __end_of_I2C_MasterEnableRestart 1A54  
                                         fp__I2C_DO_IDLE 006C  
                                         fp__I2C_DO_RCEN 006C  
                                  __end_of_I2C_SetBuffer 18F8  
                                 ?_I2C_DO_SEND_ADR_WRITE 002F  
                               I2C_MasterSendTxData@data 002F  
                                            _INTCON2bits 000FF1  
                             ??_I2C_DO_SEND_RESTART_READ 002F  
                               ?_rdBlkRegCompleteHandler 0038  
                                             _I2C_Poller 18F8  
                                             _I2C_Status 0001  
                                           ?_I2C_DO_IDLE 002F  
                                           ?_I2C_DO_RCEN 002F  
                                 ?_rd2RegCompleteHandler 0038  
                                       ??_I2C_MasterOpen 002F  
                                 ?_wr2RegCompleteHandler 0038  
                                       ??_I2C_MasterStop 002F  
                               ??_I2C_MasterWaitForEvent 002F  
                              fp__I2C_DO_RX_NACK_RESTART 006C  
                                               __Hrparam 0000  
                                               __Lrparam 0000  
                                   __end_of_I2C_DO_RESET 19D8  
                                ??_OSCILLATOR_Initialize 002F  
                                   _I2C_DO_SEND_ADR_READ 19A2  
              ??_wr1RegCompleteHandler@pic18f25k80$F2331 003A  
              ??_rd1RegCompleteHandler@pic18f25k80$F2340 003A  
               ?_wr2RegCompleteHandler@pic18f25k80$F2350 0038  
              ??_wr2RegCompleteHandler@pic18f25k80$F2352 003A  
               ?_rd2RegCompleteHandler@pic18f25k80$F2344 0038  
               ?_wr1RegCompleteHandler@pic18f25k80$F2329 0038  
              ??_rd2RegCompleteHandler@pic18f25k80$F2346 003A  
               ?_rd1RegCompleteHandler@pic18f25k80$F2338 0038  
             ?_rdBlkRegCompleteHandler@pic18f25k80$F2356 0038  
            ??_rdBlkRegCompleteHandler@pic18f25k80$F2358 003A  
                              ??_EUSART1_SetErrorHandler 0031  
                                        _I2C_MasterClose 1A5C  
                            _EUSART1_DefaultErrorHandler 000000  
                                        I2C_Open@address 002F  
                                    fp__I2C_DO_SEND_STOP 006C  
                                        _I2C_MasterStart 1A54  
                                               __ptext10 192C  
                                               __ptext11 143A  
                                               __ptext20 19CE  
                                               __ptext12 10E6  
                                               __ptext21 19EC  
                                               __ptext13 1244  
                                             _T1GCONbits 000FAA  
                                               __ptext30 1022  
                                               __ptext22 19F4  
                                               __ptext14 18B4  
                                               __ptext31 1994  
                                               __ptext23 19FC  
                                               __ptext15 15CA  
                                               __ptext40 1A32  
                                               __ptext32 19A2  
                                               __ptext24 1A04  
                                               __ptext16 18F8  
                                               __ptext41 1A40  
                                               __ptext33 19E2  
                                               __ptext25 1A0C  
                                               __ptext17 1968  
                                               __ptext50 17B2  
                                               __ptext42 1A44  
                                               __ptext34 12D0  
                                               __ptext26 1A14  
                                               __ptext18 156E  
                                               __ptext51 17DE  
                                               __ptext43 1A48  
                                               __ptext35 1A38  
                                               __ptext27 1A1C  
                                               __ptext19 14A8  
                                               __ptext60 1862  
                                               __ptext52 180A  
                                               __ptext44 160C  
                                               __ptext36 1942  
                                               __ptext28 19D8  
                                               __ptext61 1A58  
                                               __ptext53 1836  
                                               __ptext45 1702  
                                               __ptext37 1A24  
                                               __ptext29 119E  
                                               __ptext62 1A5C  
                                               __ptext54 1914  
                                               __ptext46 172E  
                                               __ptext38 1A2C  
                                               __ptext63 1A60  
                                               __ptext55 134C  
                                               __ptext47 175A  
                                               __ptext39 1A3C  
                                               __ptext56 18D6  
                                               __ptext48 164C  
                                               __ptext57 1A4C  
                                               __ptext49 1786  
                                               __ptext58 1A50  
                                               __ptext59 1A54  
                    __end_of_I2C_SetDataCompleteCallback 192C  
                            _I2C_SetDataCompleteCallback 1914  
                                          ?_EEPROM_Write 003E  
                                ?_I2C_DO_RX_NACK_RESTART 002F  
                               __end_of_I2C_DO_SEND_STOP 1A0C  
                                        _I2C_SetCallback 134C  
                          ??_I2C_SetDataCompleteCallback 0038  
         EUSART1_SetOverrunErrorHandler@interruptHandler 002F  
                                               isa$xinst 000000  
                                               int$flags 0052  
                                  ?_I2C_DO_SEND_ADR_READ 002F  
                     __end_of_INTERRUPT_InterruptManager 006C  
                             _INTERRUPT_InterruptManager 0008  
                            _EUSART1_FramingErrorHandler 004D  
                               __end_of_I2C_MasterIsNack 1956  
                               __end_of_I2C_MasterSetIrq 1A3C  
                                             _INTCONbits 000FF2  
                         __end_of_I2C_DO_RX_NACK_RESTART 19F4  
                                         ??_EEPROM_Write 0041  
                                               intlevel2 0000  
                                            ?_I2C_Poller 002F  
                                 rd2RegCompleteHandler@p 0038  
                                           ?_EEPROM_Read 003E  
                                ?_PIN_MANAGER_Initialize 002F  
                                    _I2C_DO_SEND_RESTART 1A0C  
                 __end_of_EUSART1_SetOverrunErrorHandler 19BA  
                         _EUSART1_SetOverrunErrorHandler 19B0  
                                             _RCSTA1bits 000FAB  
                                      EEPROM_Read@F12649 002C  
                                 fp__I2C_DO_ADDRESS_NACK 006C  
                                 wr2RegCompleteHandler@p 0038  
         EUSART1_SetFramingErrorHandler@interruptHandler 002F  
                                __end_of_I2C_MasterClose 1A60  
                                     fp__I2C_DO_TX_EMPTY 006C  
                                __end_of_I2C_MasterStart 1A58  
                                     _eusart1RxLastError 002E  
                                   ?_I2C_DO_SEND_RESTART 002F  
                                            _SSPCON1bits 000FC6  
                                            _SSPCON2bits 000FC5  
                                      EEPROM_Read@buffer 0040  
                                      EEPROM_Read@length 0042  
                                __end_of_I2C_SetCallback 13C6  
                         __end_of_PIN_MANAGER_Initialize 18B4  
                          __end_of_rd1RegCompleteHandler 180A  
                                       fp__I2C_DO_RX_ACK 006C  
                          __end_of_wr1RegCompleteHandler 1836  
                                        EEPROM_Read@addr 003E  
